
kernel.elf:     file format elf32-littlearm


Disassembly of section .text:

00008000 <_start>:
    8000:	f1020012 	cps	#18
    8004:	e3a0d98e 	mov	sp, #2326528	; 0x238000
    8008:	f1020017 	cps	#23
    800c:	e3a0d823 	mov	sp, #2293760	; 0x230000
    8010:	f102001b 	cps	#27
    8014:	e3a0d823 	mov	sp, #2293760	; 0x230000
    8018:	f102001f 	cps	#31
    801c:	e3a0d98a 	mov	sp, #2260992	; 0x228000
    8020:	ea00064f 	b	9964 <sysinit>

00008024 <main>:
    8024:	e92d4010 	push	{r4, lr}
    8028:	e24dde8f 	sub	sp, sp, #2288	; 0x8f0
    802c:	e1a0000d 	mov	r0, sp
    8030:	eb000013 	bl	8084 <_ZN7CKernelC1Ev>
    8034:	e1a0000d 	mov	r0, sp
    8038:	eb000059 	bl	81a4 <_ZN7CKernel10InitializeEv>
    803c:	e2504000 	subs	r4, r0, #0
    8040:	1a000001 	bne	804c <main+0x28>
    8044:	eb000636 	bl	9924 <halt>
    8048:	ea000008 	b	8070 <main+0x4c>
    804c:	e1a0000d 	mov	r0, sp
    8050:	eb000079 	bl	823c <_ZN7CKernel3RunEv>
    8054:	e3500002 	cmp	r0, #2
    8058:	1a000002 	bne	8068 <main+0x44>
    805c:	eb000632 	bl	992c <reboot>
    8060:	e3a04001 	mov	r4, #1
    8064:	ea000001 	b	8070 <main+0x4c>
    8068:	eb00062d 	bl	9924 <halt>
    806c:	e3a04000 	mov	r4, #0
    8070:	e1a0000d 	mov	r0, sp
    8074:	eb000137 	bl	8558 <_ZN7CKernelD1Ev>
    8078:	e1a00004 	mov	r0, r4
    807c:	e28dde8f 	add	sp, sp, #2288	; 0x8f0
    8080:	e8bd8010 	pop	{r4, pc}

00008084 <_ZN7CKernelC1Ev>:
    8084:	e92d41f0 	push	{r4, r5, r6, r7, r8, lr}
    8088:	e1a04000 	mov	r4, r0
    808c:	e3a01001 	mov	r1, #1
    8090:	eb0005a3 	bl	9724 <_ZN13CMemorySystemC1Ei>
    8094:	e2846010 	add	r6, r4, #16
    8098:	e1a00006 	mov	r0, r6
    809c:	eb00018b 	bl	86d0 <_ZN7CActLEDC1Ev>
    80a0:	e2845018 	add	r5, r4, #24
    80a4:	e1a00005 	mov	r0, r5
    80a8:	eb0009eb 	bl	a85c <_ZN14CKernelOptionsC1Ev>
    80ac:	e2840d11 	add	r0, r4, #1088	; 0x440
    80b0:	e280000c 	add	r0, r0, #12
    80b4:	eb000f6a 	bl	be64 <_ZN18CDeviceNameServiceC1Ev>
    80b8:	e1a00005 	mov	r0, r5
    80bc:	eb000973 	bl	a690 <_ZNK14CKernelOptions8GetWidthEv>
    80c0:	e1a07000 	mov	r7, r0
    80c4:	e1a00005 	mov	r0, r5
    80c8:	eb000972 	bl	a698 <_ZNK14CKernelOptions9GetHeightEv>
    80cc:	e1a02000 	mov	r2, r0
    80d0:	e2840e45 	add	r0, r4, #1104	; 0x450
    80d4:	e2800004 	add	r0, r0, #4
    80d8:	e1a01007 	mov	r1, r7
    80dc:	e3a03000 	mov	r3, #0
    80e0:	eb000ae8 	bl	ac88 <_ZN13CScreenDeviceC1Ejji>
    80e4:	e2840e4a 	add	r0, r4, #1184	; 0x4a0
    80e8:	e2800008 	add	r0, r0, #8
    80ec:	eb001101 	bl	c4f8 <_ZN13CSerialDeviceC1Ev>
    80f0:	e2848e4f 	add	r8, r4, #1264	; 0x4f0
    80f4:	e1a00008 	mov	r0, r8
    80f8:	eb0013f0 	bl	d0c0 <_ZN17CExceptionHandlerC1Ev>
    80fc:	e2888004 	add	r8, r8, #4
    8100:	e1a00008 	mov	r0, r8
    8104:	eb0014b2 	bl	d3d4 <_ZN16CInterruptSystemC1Ev>
    8108:	e2847e73 	add	r7, r4, #1840	; 0x730
    810c:	e2877004 	add	r7, r7, #4
    8110:	e1a00007 	mov	r0, r7
    8114:	e1a01008 	mov	r1, r8
    8118:	eb00063f 	bl	9a1c <_ZN6CTimerC1EP16CInterruptSystem>
    811c:	e1a00005 	mov	r0, r5
    8120:	eb000961 	bl	a6ac <_ZNK14CKernelOptions11GetLogLevelEv>
    8124:	e1a01000 	mov	r1, r0
    8128:	e2840e89 	add	r0, r4, #2192	; 0x890
    812c:	e1a02007 	mov	r2, r7
    8130:	eb001006 	bl	c150 <_ZN7CLoggerC1EjP6CTimer>
    8134:	e2845e8a 	add	r5, r4, #2208	; 0x8a0
    8138:	e285500c 	add	r5, r5, #12
    813c:	e1a00005 	mov	r0, r5
    8140:	e3a01000 	mov	r1, #0
    8144:	e3a02006 	mov	r2, #6
    8148:	eb001699 	bl	dbb4 <_ZN10CGPIOClockC1E10TGPIOClock16TGPIOClockSource>
    814c:	e2840e8b 	add	r0, r4, #2224	; 0x8b0
    8150:	e3a01004 	mov	r1, #4
    8154:	e1a02001 	mov	r2, r1
    8158:	e3a03000 	mov	r3, #0
    815c:	eb00044d 	bl	9298 <_ZN8CGPIOPinC1Ej9TGPIOModeP12CGPIOManager>
    8160:	e2840e8d 	add	r0, r4, #2256	; 0x8d0
    8164:	e3a01012 	mov	r1, #18
    8168:	e3a02000 	mov	r2, #0
    816c:	e1a03002 	mov	r3, r2
    8170:	eb000448 	bl	9298 <_ZN8CGPIOPinC1Ej9TGPIOModeP12CGPIOManager>
    8174:	e1a00006 	mov	r0, r6
    8178:	e3a01005 	mov	r1, #5
    817c:	e3a020c8 	mov	r2, #200	; 0xc8
    8180:	e3a03f7d 	mov	r3, #500	; 0x1f4
    8184:	eb00018f 	bl	87c8 <_ZN7CActLED5BlinkEjjj>
    8188:	e1a00005 	mov	r0, r5
    818c:	e3a01efa 	mov	r1, #4000	; 0xfa0
    8190:	e3a02000 	mov	r2, #0
    8194:	e1a03002 	mov	r3, r2
    8198:	eb0016b3 	bl	dc6c <_ZN10CGPIOClock5StartEjjj>
    819c:	e1a00004 	mov	r0, r4
    81a0:	e8bd81f0 	pop	{r4, r5, r6, r7, r8, pc}

000081a4 <_ZN7CKernel10InitializeEv>:
    81a4:	e92d4038 	push	{r3, r4, r5, lr}
    81a8:	e1a04000 	mov	r4, r0
    81ac:	e2805e45 	add	r5, r0, #1104	; 0x450
    81b0:	e2855004 	add	r5, r5, #4
    81b4:	e1a00005 	mov	r0, r5
    81b8:	eb000de1 	bl	b944 <_ZN13CScreenDevice10InitializeEv>
    81bc:	e3500000 	cmp	r0, #0
    81c0:	08bd8038 	popeq	{r3, r4, r5, pc}
    81c4:	e2840e4a 	add	r0, r4, #1184	; 0x4a0
    81c8:	e2800008 	add	r0, r0, #8
    81cc:	e59f1064 	ldr	r1, [pc, #100]	; 8238 <_ZN7CKernel10InitializeEv+0x94>
    81d0:	eb0010dc 	bl	c548 <_ZN13CSerialDevice10InitializeEj>
    81d4:	e3500000 	cmp	r0, #0
    81d8:	08bd8038 	popeq	{r3, r4, r5, pc}
    81dc:	e2840018 	add	r0, r4, #24
    81e0:	eb00092e 	bl	a6a0 <_ZNK14CKernelOptions12GetLogDeviceEv>
    81e4:	e1a01000 	mov	r1, r0
    81e8:	e2840d11 	add	r0, r4, #1088	; 0x440
    81ec:	e280000c 	add	r0, r0, #12
    81f0:	e3a02000 	mov	r2, #0
    81f4:	eb000f83 	bl	c008 <_ZN18CDeviceNameService9GetDeviceEPKci>
    81f8:	e2501000 	subs	r1, r0, #0
    81fc:	e2840e89 	add	r0, r4, #2192	; 0x890
    8200:	e3510000 	cmp	r1, #0
    8204:	01a01005 	moveq	r1, r5
    8208:	eb0010b0 	bl	c4d0 <_ZN7CLogger10InitializeEP7CDevice>
    820c:	e3500000 	cmp	r0, #0
    8210:	08bd8038 	popeq	{r3, r4, r5, pc}
    8214:	e2840e4f 	add	r0, r4, #1264	; 0x4f0
    8218:	e2800004 	add	r0, r0, #4
    821c:	eb00147d 	bl	d418 <_ZN16CInterruptSystem10InitializeEv>
    8220:	e3500000 	cmp	r0, #0
    8224:	08bd8038 	popeq	{r3, r4, r5, pc}
    8228:	e2840e73 	add	r0, r4, #1840	; 0x730
    822c:	e2800004 	add	r0, r0, #4
    8230:	eb000737 	bl	9f14 <_ZN6CTimer10InitializeEv>
    8234:	e8bd8038 	pop	{r3, r4, r5, pc}
    8238:	0001c200 	andeq	ip, r1, r0, lsl #4

0000823c <_ZN7CKernel3RunEv>:
    823c:	e92d4ff0 	push	{r4, r5, r6, r7, r8, r9, sl, fp, lr}
    8240:	e24dd034 	sub	sp, sp, #52	; 0x34
    8244:	e1a05000 	mov	r5, r0
    8248:	e2804e89 	add	r4, r0, #2192	; 0x890
    824c:	e1a00004 	mov	r0, r4
    8250:	e59f12d4 	ldr	r1, [pc, #724]	; 852c <_ZN7CKernel3RunEv+0x2f0>
    8254:	e3a02003 	mov	r2, #3
    8258:	e59f32d0 	ldr	r3, [pc, #720]	; 8530 <_ZN7CKernel3RunEv+0x2f4>
    825c:	eb00108f 	bl	c4a0 <_ZN7CLogger5WriteEPKc12TLogSeverityS1_z>
    8260:	e2855e45 	add	r5, r5, #1104	; 0x450
    8264:	e2856004 	add	r6, r5, #4
    8268:	e1a00006 	mov	r0, r6
    826c:	eb000aa1 	bl	acf8 <_ZNK13CScreenDevice8GetWidthEv>
    8270:	e3500000 	cmp	r0, #0
    8274:	e58d0010 	str	r0, [sp, #16]
    8278:	1a000004 	bne	8290 <_ZN7CKernel3RunEv+0x54>
    827c:	e59f02b0 	ldr	r0, [pc, #688]	; 8534 <_ZN7CKernel3RunEv+0x2f8>
    8280:	e59f12b0 	ldr	r1, [pc, #688]	; 8538 <_ZN7CKernel3RunEv+0x2fc>
    8284:	e3a0205f 	mov	r2, #95	; 0x5f
    8288:	eb000e44 	bl	bba0 <assertion_failed>
    828c:	ea000003 	b	82a0 <_ZN7CKernel3RunEv+0x64>
    8290:	e59d2010 	ldr	r2, [sp, #16]
    8294:	e352057f 	cmp	r2, #532676608	; 0x1fc00000
    8298:	83e00000 	mvnhi	r0, #0
    829c:	8a000002 	bhi	82ac <_ZN7CKernel3RunEv+0x70>
    82a0:	e59d3010 	ldr	r3, [sp, #16]
    82a4:	e1a00103 	lsl	r0, r3, #2
    82a8:	eaffffff 	b	82ac <_ZN7CKernel3RunEv+0x70>
    82ac:	eb000565 	bl	9848 <_Znaj>
    82b0:	e3500000 	cmp	r0, #0
    82b4:	e58d0014 	str	r0, [sp, #20]
    82b8:	1a000004 	bne	82d0 <_ZN7CKernel3RunEv+0x94>
    82bc:	e1a00004 	mov	r0, r4
    82c0:	e59f1264 	ldr	r1, [pc, #612]	; 852c <_ZN7CKernel3RunEv+0x2f0>
    82c4:	e3a02000 	mov	r2, #0
    82c8:	e59f326c 	ldr	r3, [pc, #620]	; 853c <_ZN7CKernel3RunEv+0x300>
    82cc:	eb001073 	bl	c4a0 <_ZN7CLogger5WriteEPKc12TLogSeverityS1_z>
    82d0:	e3a03000 	mov	r3, #0
    82d4:	ee073f1a 	mcr	15, 0, r3, cr7, cr10, {0}
    82d8:	ee073f16 	mcr	15, 0, r3, cr7, cr6, {0}
    82dc:	ee073fba 	mcr	15, 0, r3, cr7, cr10, {5}
    82e0:	e58d3000 	str	r3, [sp]
    82e4:	e59d0014 	ldr	r0, [sp, #20]
    82e8:	e59d1010 	ldr	r1, [sp, #16]
    82ec:	e1a02003 	mov	r2, r3
    82f0:	eb0000bc 	bl	85e8 <Sampler>
    82f4:	e3500000 	cmp	r0, #0
    82f8:	e58d0024 	str	r0, [sp, #36]	; 0x24
    82fc:	1a000004 	bne	8314 <_ZN7CKernel3RunEv+0xd8>
    8300:	e1a00004 	mov	r0, r4
    8304:	e59f1220 	ldr	r1, [pc, #544]	; 852c <_ZN7CKernel3RunEv+0x2f0>
    8308:	e3a02000 	mov	r2, #0
    830c:	e59f322c 	ldr	r3, [pc, #556]	; 8540 <_ZN7CKernel3RunEv+0x304>
    8310:	eb001062 	bl	c4a0 <_ZN7CLogger5WriteEPKc12TLogSeverityS1_z>
    8314:	e59f5210 	ldr	r5, [pc, #528]	; 852c <_ZN7CKernel3RunEv+0x2f0>
    8318:	e3a00ffa 	mov	r0, #1000	; 0x3e8
    831c:	e59d2010 	ldr	r2, [sp, #16]
    8320:	e0000290 	mul	r0, r0, r2
    8324:	e59d1024 	ldr	r1, [sp, #36]	; 0x24
    8328:	eb00044b 	bl	945c <__aeabi_uidiv>
    832c:	e58d0000 	str	r0, [sp]
    8330:	e1a00004 	mov	r0, r4
    8334:	e1a01005 	mov	r1, r5
    8338:	e3a02003 	mov	r2, #3
    833c:	e59f3200 	ldr	r3, [pc, #512]	; 8544 <_ZN7CKernel3RunEv+0x308>
    8340:	eb001056 	bl	c4a0 <_ZN7CLogger5WriteEPKc12TLogSeverityS1_z>
    8344:	e59d3024 	ldr	r3, [sp, #36]	; 0x24
    8348:	e58d3000 	str	r3, [sp]
    834c:	e1a00004 	mov	r0, r4
    8350:	e1a01005 	mov	r1, r5
    8354:	e3a02003 	mov	r2, #3
    8358:	e59f31e8 	ldr	r3, [pc, #488]	; 8548 <_ZN7CKernel3RunEv+0x30c>
    835c:	eb00104f 	bl	c4a0 <_ZN7CLogger5WriteEPKc12TLogSeverityS1_z>
    8360:	e1a00004 	mov	r0, r4
    8364:	e1a01005 	mov	r1, r5
    8368:	e3a02003 	mov	r2, #3
    836c:	e59f31d8 	ldr	r3, [pc, #472]	; 854c <_ZN7CKernel3RunEv+0x310>
    8370:	eb00104a 	bl	c4a0 <_ZN7CLogger5WriteEPKc12TLogSeverityS1_z>
    8374:	e1a00006 	mov	r0, r6
    8378:	eb000a60 	bl	ad00 <_ZNK13CScreenDevice9GetHeightEv>
    837c:	e1a000a0 	lsr	r0, r0, #1
    8380:	e58d002c 	str	r0, [sp, #44]	; 0x2c
    8384:	e2802028 	add	r2, r0, #40	; 0x28
    8388:	e58d2028 	str	r2, [sp, #40]	; 0x28
    838c:	e1a00006 	mov	r0, r6
    8390:	eb000a5a 	bl	ad00 <_ZNK13CScreenDevice9GetHeightEv>
    8394:	e1a000a0 	lsr	r0, r0, #1
    8398:	e2403028 	sub	r3, r0, #40	; 0x28
    839c:	e58d3018 	str	r3, [sp, #24]
    83a0:	e59d2010 	ldr	r2, [sp, #16]
    83a4:	e3520000 	cmp	r2, #0
    83a8:	0a00005a 	beq	8518 <_ZN7CKernel3RunEv+0x2dc>
    83ac:	e3a03000 	mov	r3, #0
    83b0:	e58d300c 	str	r3, [sp, #12]
    83b4:	e1a05003 	mov	r5, r3
    83b8:	e58d301c 	str	r3, [sp, #28]
    83bc:	e1a0b003 	mov	fp, r3
    83c0:	e240003c 	sub	r0, r0, #60	; 0x3c
    83c4:	e58d0020 	str	r0, [sp, #32]
    83c8:	e59d202c 	ldr	r2, [sp, #44]	; 0x2c
    83cc:	e282703c 	add	r7, r2, #60	; 0x3c
    83d0:	e3a08002 	mov	r8, #2
    83d4:	e59d000c 	ldr	r0, [sp, #12]
    83d8:	e59d1010 	ldr	r1, [sp, #16]
    83dc:	eb00041e 	bl	945c <__aeabi_uidiv>
    83e0:	e59f3168 	ldr	r3, [pc, #360]	; 8550 <_ZN7CKernel3RunEv+0x314>
    83e4:	e0893093 	umull	r3, r9, r3, r0
    83e8:	e1a091a9 	lsr	r9, r9, #3
    83ec:	e59d201c 	ldr	r2, [sp, #28]
    83f0:	e1520009 	cmp	r2, r9
    83f4:	0a00000e 	beq	8434 <_ZN7CKernel3RunEv+0x1f8>
    83f8:	e59d4020 	ldr	r4, [sp, #32]
    83fc:	e1540007 	cmp	r4, r7
    8400:	8a000008 	bhi	8428 <_ZN7CKernel3RunEv+0x1ec>
    8404:	e1a00006 	mov	r0, r6
    8408:	e1a01005 	mov	r1, r5
    840c:	e1a02004 	mov	r2, r4
    8410:	e1a03008 	mov	r3, r8
    8414:	eb000b47 	bl	b138 <_ZN13CScreenDevice8SetPixelEjjh>
    8418:	e2844001 	add	r4, r4, #1
    841c:	e1540007 	cmp	r4, r7
    8420:	9afffff7 	bls	8404 <_ZN7CKernel3RunEv+0x1c8>
    8424:	ea000001 	b	8430 <_ZN7CKernel3RunEv+0x1f4>
    8428:	e58d901c 	str	r9, [sp, #28]
    842c:	ea000000 	b	8434 <_ZN7CKernel3RunEv+0x1f8>
    8430:	e58d901c 	str	r9, [sp, #28]
    8434:	e59d3014 	ldr	r3, [sp, #20]
    8438:	e3530000 	cmp	r3, #0
    843c:	1a000003 	bne	8450 <_ZN7CKernel3RunEv+0x214>
    8440:	e59f010c 	ldr	r0, [pc, #268]	; 8554 <_ZN7CKernel3RunEv+0x318>
    8444:	e59f10ec 	ldr	r1, [pc, #236]	; 8538 <_ZN7CKernel3RunEv+0x2fc>
    8448:	e3a02088 	mov	r2, #136	; 0x88
    844c:	eb000dd3 	bl	bba0 <assertion_failed>
    8450:	e59d2014 	ldr	r2, [sp, #20]
    8454:	e792a105 	ldr	sl, [r2, r5, lsl #2]
    8458:	e1a0a92a 	lsr	sl, sl, #18
    845c:	e20aa001 	and	sl, sl, #1
    8460:	e59d4028 	ldr	r4, [sp, #40]	; 0x28
    8464:	e59d3018 	ldr	r3, [sp, #24]
    8468:	e35a0000 	cmp	sl, #0
    846c:	11a04003 	movne	r4, r3
    8470:	e1a00006 	mov	r0, r6
    8474:	e1a01005 	mov	r1, r5
    8478:	e1a02004 	mov	r2, r4
    847c:	e3a03001 	mov	r3, #1
    8480:	eb000b2c 	bl	b138 <_ZN13CScreenDevice8SetPixelEjjh>
    8484:	e1a00006 	mov	r0, r6
    8488:	e1a01005 	mov	r1, r5
    848c:	e2842001 	add	r2, r4, #1
    8490:	e3a03001 	mov	r3, #1
    8494:	eb000b27 	bl	b138 <_ZN13CScreenDevice8SetPixelEjjh>
    8498:	e1a00006 	mov	r0, r6
    849c:	e1a01005 	mov	r1, r5
    84a0:	e2842002 	add	r2, r4, #2
    84a4:	e3a03001 	mov	r3, #1
    84a8:	eb000b22 	bl	b138 <_ZN13CScreenDevice8SetPixelEjjh>
    84ac:	e15b000a 	cmp	fp, sl
    84b0:	13550000 	cmpne	r5, #0
    84b4:	0a00000e 	beq	84f4 <_ZN7CKernel3RunEv+0x2b8>
    84b8:	e59d202c 	ldr	r2, [sp, #44]	; 0x2c
    84bc:	e282902a 	add	r9, r2, #42	; 0x2a
    84c0:	e59d3018 	ldr	r3, [sp, #24]
    84c4:	e1530009 	cmp	r3, r9
    84c8:	8a000009 	bhi	84f4 <_ZN7CKernel3RunEv+0x2b8>
    84cc:	e1a04003 	mov	r4, r3
    84d0:	e3a0b001 	mov	fp, #1
    84d4:	e1a00006 	mov	r0, r6
    84d8:	e1a01005 	mov	r1, r5
    84dc:	e1a02004 	mov	r2, r4
    84e0:	e1a0300b 	mov	r3, fp
    84e4:	eb000b13 	bl	b138 <_ZN13CScreenDevice8SetPixelEjjh>
    84e8:	e2844001 	add	r4, r4, #1
    84ec:	e1540009 	cmp	r4, r9
    84f0:	9afffff7 	bls	84d4 <_ZN7CKernel3RunEv+0x298>
    84f4:	e2855001 	add	r5, r5, #1
    84f8:	e59d200c 	ldr	r2, [sp, #12]
    84fc:	e59d3024 	ldr	r3, [sp, #36]	; 0x24
    8500:	e0822003 	add	r2, r2, r3
    8504:	e58d200c 	str	r2, [sp, #12]
    8508:	e59d2010 	ldr	r2, [sp, #16]
    850c:	e1550002 	cmp	r5, r2
    8510:	11a0b00a 	movne	fp, sl
    8514:	1affffae 	bne	83d4 <_ZN7CKernel3RunEv+0x198>
    8518:	e59d0014 	ldr	r0, [sp, #20]
    851c:	eb0004cc 	bl	9854 <_ZdlPv>
    8520:	e3a00001 	mov	r0, #1
    8524:	e28dd034 	add	sp, sp, #52	; 0x34
    8528:	e8bd8ff0 	pop	{r4, r5, r6, r7, r8, r9, sl, fp, pc}
    852c:	0000e6d8 	ldrdeq	lr, [r0], -r8
    8530:	0000e6e0 	andeq	lr, r0, r0, ror #13
    8534:	0000e704 	andeq	lr, r0, r4, lsl #14
    8538:	0000e714 	andeq	lr, r0, r4, lsl r7
    853c:	0000e720 	andeq	lr, r0, r0, lsr #14
    8540:	0000e734 	andeq	lr, r0, r4, lsr r7
    8544:	0000e760 	andeq	lr, r0, r0, ror #14
    8548:	0000e77c 	andeq	lr, r0, ip, ror r7
    854c:	0000e794 	muleq	r0, r4, r7
    8550:	cccccccd 	stclgt	12, cr12, [ip], {205}	; 0xcd
    8554:	0000e7b8 			; <UNDEFINED> instruction: 0x0000e7b8

00008558 <_ZN7CKernelD1Ev>:
    8558:	e92d4038 	push	{r3, r4, r5, lr}
    855c:	e1a04000 	mov	r4, r0
    8560:	e2800e8d 	add	r0, r0, #2256	; 0x8d0
    8564:	eb00010c 	bl	899c <_ZN8CGPIOPinD1Ev>
    8568:	e2840e8b 	add	r0, r4, #2224	; 0x8b0
    856c:	eb00010a 	bl	899c <_ZN8CGPIOPinD1Ev>
    8570:	e2840e8a 	add	r0, r4, #2208	; 0x8a0
    8574:	e280000c 	add	r0, r0, #12
    8578:	eb0015b6 	bl	dc58 <_ZN10CGPIOClockD1Ev>
    857c:	e2840e89 	add	r0, r4, #2192	; 0x890
    8580:	eb000f05 	bl	c19c <_ZN7CLoggerD1Ev>
    8584:	e2840e73 	add	r0, r4, #1840	; 0x730
    8588:	e2800004 	add	r0, r0, #4
    858c:	eb000547 	bl	9ab0 <_ZN6CTimerD1Ev>
    8590:	e2845e4f 	add	r5, r4, #1264	; 0x4f0
    8594:	e2850004 	add	r0, r5, #4
    8598:	eb001399 	bl	d404 <_ZN16CInterruptSystemD1Ev>
    859c:	e1a00005 	mov	r0, r5
    85a0:	eb0012f0 	bl	d168 <_ZN17CExceptionHandlerD1Ev>
    85a4:	e2840e4a 	add	r0, r4, #1184	; 0x4a0
    85a8:	e2800008 	add	r0, r0, #8
    85ac:	eb001084 	bl	c7c4 <_ZN13CSerialDeviceD1Ev>
    85b0:	e2840e45 	add	r0, r4, #1104	; 0x450
    85b4:	e2800004 	add	r0, r0, #4
    85b8:	eb00098e 	bl	abf8 <_ZN13CScreenDeviceD1Ev>
    85bc:	e2840d11 	add	r0, r4, #1088	; 0x440
    85c0:	e280000c 	add	r0, r0, #12
    85c4:	eb000e3a 	bl	beb4 <_ZN18CDeviceNameServiceD1Ev>
    85c8:	e2840018 	add	r0, r4, #24
    85cc:	eb00082a 	bl	a67c <_ZN14CKernelOptionsD1Ev>
    85d0:	e2840010 	add	r0, r4, #16
    85d4:	eb000024 	bl	866c <_ZN7CActLEDD1Ev>
    85d8:	e1a00004 	mov	r0, r4
    85dc:	eb0003ad 	bl	9498 <_ZN13CMemorySystemD1Ev>
    85e0:	e1a00004 	mov	r0, r4
    85e4:	e8bd8038 	pop	{r3, r4, r5, pc}

000085e8 <Sampler>:
    85e8:	e92d00f0 	push	{r4, r5, r6, r7}
    85ec:	e59d4010 	ldr	r4, [sp, #16]
    85f0:	f10c0080 	cpsid	i
    85f4:	e59f5068 	ldr	r5, [pc, #104]	; 8664 <fastloop+0x14>
    85f8:	e5956000 	ldr	r6, [r5]
    85fc:	e0067002 	and	r7, r6, r2
    8600:	e1570003 	cmp	r7, r3
    8604:	1afffffb 	bne	85f8 <Sampler+0x10>
    8608:	e59f2058 	ldr	r2, [pc, #88]	; 8668 <fastloop+0x18>
    860c:	e5923000 	ldr	r3, [r2]
    8610:	e3540000 	cmp	r4, #0
    8614:	0a00000d 	beq	8650 <fastloop>
    8618:	e4806004 	str	r6, [r0], #4
    861c:	e1a07004 	mov	r7, r4
    8620:	e2577001 	subs	r7, r7, #1
    8624:	8afffffd 	bhi	8620 <Sampler+0x38>
    8628:	e5956000 	ldr	r6, [r5]
    862c:	e2511001 	subs	r1, r1, #1
    8630:	8afffff8 	bhi	8618 <Sampler+0x30>
    8634:	e5922000 	ldr	r2, [r2]
    8638:	f1080080 	cpsie	i
    863c:	e3a00000 	mov	r0, #0
    8640:	ee070fba 	mcr	15, 0, r0, cr7, cr10, {5}
    8644:	e0420003 	sub	r0, r2, r3
    8648:	e8bd00f0 	pop	{r4, r5, r6, r7}
    864c:	e12fff1e 	bx	lr

00008650 <fastloop>:
    8650:	e4806004 	str	r6, [r0], #4
    8654:	e5956000 	ldr	r6, [r5]
    8658:	e2511001 	subs	r1, r1, #1
    865c:	8afffffb 	bhi	8650 <fastloop>
    8660:	eafffff3 	b	8634 <Sampler+0x4c>
    8664:	20200034 	eorcs	r0, r0, r4, lsr r0
    8668:	20003004 	andcs	r3, r0, r4

0000866c <_ZN7CActLEDD1Ev>:
    866c:	e3a02000 	mov	r2, #0
    8670:	e59f3004 	ldr	r3, [pc, #4]	; 867c <_ZN7CActLEDD1Ev+0x10>
    8674:	e5832000 	str	r2, [r3]
    8678:	e12fff1e 	bx	lr
    867c:	000100e8 	andeq	r0, r1, r8, ror #1

00008680 <_ZN7CActLED2OnEv>:
    8680:	e92d4008 	push	{r3, lr}
    8684:	e5903000 	ldr	r3, [r0]
    8688:	e3530000 	cmp	r3, #0
    868c:	08bd8008 	popeq	{r3, pc}
    8690:	e5901004 	ldr	r1, [r0, #4]
    8694:	e1a00003 	mov	r0, r3
    8698:	e2911000 	adds	r1, r1, #0
    869c:	13a01001 	movne	r1, #1
    86a0:	eb0000cd 	bl	89dc <_ZN8CGPIOPin5WriteEj>
    86a4:	e8bd8008 	pop	{r3, pc}

000086a8 <_ZN7CActLED3OffEv>:
    86a8:	e92d4008 	push	{r3, lr}
    86ac:	e5903000 	ldr	r3, [r0]
    86b0:	e3530000 	cmp	r3, #0
    86b4:	08bd8008 	popeq	{r3, pc}
    86b8:	e5901004 	ldr	r1, [r0, #4]
    86bc:	e1a00003 	mov	r0, r3
    86c0:	e2711001 	rsbs	r1, r1, #1
    86c4:	33a01000 	movcc	r1, #0
    86c8:	eb0000c3 	bl	89dc <_ZN8CGPIOPin5WriteEj>
    86cc:	e8bd8008 	pop	{r3, pc}

000086d0 <_ZN7CActLEDC1Ev>:
    86d0:	e92d4030 	push	{r4, r5, lr}
    86d4:	e24dd024 	sub	sp, sp, #36	; 0x24
    86d8:	e1a04000 	mov	r4, r0
    86dc:	e3a05000 	mov	r5, #0
    86e0:	e5805000 	str	r5, [r0]
    86e4:	e59f30d4 	ldr	r3, [pc, #212]	; 87c0 <_ZN7CActLEDC1Ev+0xf0>
    86e8:	e5830000 	str	r0, [r3]
    86ec:	e28d0008 	add	r0, sp, #8
    86f0:	eb00004b 	bl	8824 <_ZN16CBcmPropertyTagsC1Ev>
    86f4:	e58d5000 	str	r5, [sp]
    86f8:	e28d0008 	add	r0, sp, #8
    86fc:	e59f10c0 	ldr	r1, [pc, #192]	; 87c4 <_ZN7CActLEDC1Ev+0xf4>
    8700:	e28d2010 	add	r2, sp, #16
    8704:	e3a03010 	mov	r3, #16
    8708:	eb000050 	bl	8850 <_ZN16CBcmPropertyTags6GetTagEjPvjj>
    870c:	e1500005 	cmp	r0, r5
    8710:	0a000025 	beq	87ac <_ZN7CActLEDC1Ev+0xdc>
    8714:	e59d301c 	ldr	r3, [sp, #28]
    8718:	e3130502 	tst	r3, #8388608	; 0x800000
    871c:	0a000005 	beq	8738 <_ZN7CActLEDC1Ev+0x68>
    8720:	e1a03223 	lsr	r3, r3, #4
    8724:	e6ef3073 	uxtb	r3, r3
    8728:	e3530001 	cmp	r3, #1
    872c:	83a03000 	movhi	r3, #0
    8730:	93a03001 	movls	r3, #1
    8734:	ea000003 	b	8748 <_ZN7CActLEDC1Ev+0x78>
    8738:	e6ff3073 	uxth	r3, r3
    873c:	e353000f 	cmp	r3, #15
    8740:	83a03000 	movhi	r3, #0
    8744:	93a03001 	movls	r3, #1
    8748:	e3530000 	cmp	r3, #0
    874c:	0a00000a 	beq	877c <_ZN7CActLEDC1Ev+0xac>
    8750:	e3a00020 	mov	r0, #32
    8754:	eb000438 	bl	983c <_Znwj>
    8758:	e1a05000 	mov	r5, r0
    875c:	e3a01010 	mov	r1, #16
    8760:	e3a02001 	mov	r2, #1
    8764:	e3a03000 	mov	r3, #0
    8768:	eb0002ca 	bl	9298 <_ZN8CGPIOPinC1Ej9TGPIOModeP12CGPIOManager>
    876c:	e5845000 	str	r5, [r4]
    8770:	e3a03000 	mov	r3, #0
    8774:	e5843004 	str	r3, [r4, #4]
    8778:	ea000009 	b	87a4 <_ZN7CActLEDC1Ev+0xd4>
    877c:	e3a00020 	mov	r0, #32
    8780:	eb00042d 	bl	983c <_Znwj>
    8784:	e1a05000 	mov	r5, r0
    8788:	e3a0102f 	mov	r1, #47	; 0x2f
    878c:	e3a02001 	mov	r2, #1
    8790:	e3a03000 	mov	r3, #0
    8794:	eb0002bf 	bl	9298 <_ZN8CGPIOPinC1Ej9TGPIOModeP12CGPIOManager>
    8798:	e5845000 	str	r5, [r4]
    879c:	e3a03001 	mov	r3, #1
    87a0:	e5843004 	str	r3, [r4, #4]
    87a4:	e1a00004 	mov	r0, r4
    87a8:	ebffffbe 	bl	86a8 <_ZN7CActLED3OffEv>
    87ac:	e28d0008 	add	r0, sp, #8
    87b0:	eb000021 	bl	883c <_ZN16CBcmPropertyTagsD1Ev>
    87b4:	e1a00004 	mov	r0, r4
    87b8:	e28dd024 	add	sp, sp, #36	; 0x24
    87bc:	e8bd8030 	pop	{r4, r5, pc}
    87c0:	000100e8 	andeq	r0, r1, r8, ror #1
    87c4:	00010002 	andeq	r0, r1, r2

000087c8 <_ZN7CActLED5BlinkEjjj>:
    87c8:	e92d41f0 	push	{r4, r5, r6, r7, r8, lr}
    87cc:	e1a05000 	mov	r5, r0
    87d0:	e1a07002 	mov	r7, r2
    87d4:	e1a08003 	mov	r8, r3
    87d8:	e2516000 	subs	r6, r1, #0
    87dc:	08bd81f0 	popeq	{r4, r5, r6, r7, r8, pc}
    87e0:	e3a04001 	mov	r4, #1
    87e4:	e1a00005 	mov	r0, r5
    87e8:	ebffffa4 	bl	8680 <_ZN7CActLED2OnEv>
    87ec:	e1a00007 	mov	r0, r7
    87f0:	eb0005ff 	bl	9ff4 <_ZN6CTimer13SimpleMsDelayEj>
    87f4:	e1a00005 	mov	r0, r5
    87f8:	ebffffaa 	bl	86a8 <_ZN7CActLED3OffEv>
    87fc:	e1a00008 	mov	r0, r8
    8800:	eb0005fb 	bl	9ff4 <_ZN6CTimer13SimpleMsDelayEj>
    8804:	e2844001 	add	r4, r4, #1
    8808:	e1560004 	cmp	r6, r4
    880c:	2afffff4 	bcs	87e4 <_ZN7CActLED5BlinkEjjj+0x1c>
    8810:	e8bd81f0 	pop	{r4, r5, r6, r7, r8, pc}

00008814 <_ZN7CActLED3GetEv>:
    8814:	e59f3004 	ldr	r3, [pc, #4]	; 8820 <_ZN7CActLED3GetEv+0xc>
    8818:	e5930000 	ldr	r0, [r3]
    881c:	e12fff1e 	bx	lr
    8820:	000100e8 	andeq	r0, r1, r8, ror #1

00008824 <_ZN16CBcmPropertyTagsC1Ev>:
    8824:	e92d4010 	push	{r4, lr}
    8828:	e1a04000 	mov	r4, r0
    882c:	e3a01008 	mov	r1, #8
    8830:	eb001687 	bl	e254 <_ZN11CBcmMailBoxC1Ej>
    8834:	e1a00004 	mov	r0, r4
    8838:	e8bd8010 	pop	{r4, pc}

0000883c <_ZN16CBcmPropertyTagsD1Ev>:
    883c:	e92d4010 	push	{r4, lr}
    8840:	e1a04000 	mov	r4, r0
    8844:	eb001686 	bl	e264 <_ZN11CBcmMailBoxD1Ev>
    8848:	e1a00004 	mov	r0, r4
    884c:	e8bd8010 	pop	{r4, pc}

00008850 <_ZN16CBcmPropertyTags6GetTagEjPvjj>:
    8850:	e92d4ff8 	push	{r3, r4, r5, r6, r7, r8, r9, sl, fp, lr}
    8854:	e28db024 	add	fp, sp, #36	; 0x24
    8858:	e1a09000 	mov	r9, r0
    885c:	e1a0a001 	mov	sl, r1
    8860:	e1a05003 	mov	r5, r3
    8864:	e2528000 	subs	r8, r2, #0
    8868:	1a000003 	bne	887c <_ZN16CBcmPropertyTags6GetTagEjPvjj+0x2c>
    886c:	e59f0118 	ldr	r0, [pc, #280]	; 898c <_ZN16CBcmPropertyTags6GetTagEjPvjj+0x13c>
    8870:	e59f1118 	ldr	r1, [pc, #280]	; 8990 <_ZN16CBcmPropertyTags6GetTagEjPvjj+0x140>
    8874:	e3a02030 	mov	r2, #48	; 0x30
    8878:	eb000cc8 	bl	bba0 <assertion_failed>
    887c:	e3550010 	cmp	r5, #16
    8880:	2a000003 	bcs	8894 <_ZN16CBcmPropertyTags6GetTagEjPvjj+0x44>
    8884:	e59f0108 	ldr	r0, [pc, #264]	; 8994 <_ZN16CBcmPropertyTags6GetTagEjPvjj+0x144>
    8888:	e59f1100 	ldr	r1, [pc, #256]	; 8990 <_ZN16CBcmPropertyTags6GetTagEjPvjj+0x140>
    888c:	e3a02031 	mov	r2, #49	; 0x31
    8890:	eb000cc2 	bl	bba0 <assertion_failed>
    8894:	e285600c 	add	r6, r5, #12
    8898:	e3160003 	tst	r6, #3
    889c:	0a000003 	beq	88b0 <_ZN16CBcmPropertyTags6GetTagEjPvjj+0x60>
    88a0:	e59f00f0 	ldr	r0, [pc, #240]	; 8998 <_ZN16CBcmPropertyTags6GetTagEjPvjj+0x148>
    88a4:	e59f10e4 	ldr	r1, [pc, #228]	; 8990 <_ZN16CBcmPropertyTags6GetTagEjPvjj+0x140>
    88a8:	e3a02033 	mov	r2, #51	; 0x33
    88ac:	eb000cbb 	bl	bba0 <assertion_failed>
    88b0:	e2853022 	add	r3, r5, #34	; 0x22
    88b4:	e3c33007 	bic	r3, r3, #7
    88b8:	e04dd003 	sub	sp, sp, r3
    88bc:	e28d400f 	add	r4, sp, #15
    88c0:	e3c4400f 	bic	r4, r4, #15
    88c4:	e5846000 	str	r6, [r4]
    88c8:	e3a06000 	mov	r6, #0
    88cc:	e5846004 	str	r6, [r4, #4]
    88d0:	e2847008 	add	r7, r4, #8
    88d4:	e1a00007 	mov	r0, r7
    88d8:	e1a01008 	mov	r1, r8
    88dc:	e1a02005 	mov	r2, r5
    88e0:	eb000676 	bl	a2c0 <memcpy>
    88e4:	e584a008 	str	sl, [r4, #8]
    88e8:	e245300c 	sub	r3, r5, #12
    88ec:	e584300c 	str	r3, [r4, #12]
    88f0:	e59b3004 	ldr	r3, [fp, #4]
    88f4:	e3c33102 	bic	r3, r3, #-2147483648	; 0x80000000
    88f8:	e5843010 	str	r3, [r4, #16]
    88fc:	e2853008 	add	r3, r5, #8
    8900:	e7846003 	str	r6, [r4, r3]
    8904:	ee076f1a 	mcr	15, 0, r6, cr7, cr10, {0}
    8908:	e3a03000 	mov	r3, #0
    890c:	ee073f9a 	mcr	15, 0, r3, cr7, cr10, {4}
    8910:	e2846101 	add	r6, r4, #1073741824	; 0x40000000
    8914:	e1a00009 	mov	r0, r9
    8918:	e1a01006 	mov	r1, r6
    891c:	eb00168a 	bl	e34c <_ZN11CBcmMailBox9WriteReadEj>
    8920:	e1560000 	cmp	r6, r0
    8924:	13a00000 	movne	r0, #0
    8928:	1a000015 	bne	8984 <_ZN16CBcmPropertyTags6GetTagEjPvjj+0x134>
    892c:	e3a03000 	mov	r3, #0
    8930:	ee073f16 	mcr	15, 0, r3, cr7, cr6, {0}
    8934:	ee073f9a 	mcr	15, 0, r3, cr7, cr10, {4}
    8938:	e5943004 	ldr	r3, [r4, #4]
    893c:	e3530102 	cmp	r3, #-2147483648	; 0x80000000
    8940:	13a00000 	movne	r0, #0
    8944:	1a00000e 	bne	8984 <_ZN16CBcmPropertyTags6GetTagEjPvjj+0x134>
    8948:	e5943010 	ldr	r3, [r4, #16]
    894c:	e3530000 	cmp	r3, #0
    8950:	a3a00000 	movge	r0, #0
    8954:	aa00000a 	bge	8984 <_ZN16CBcmPropertyTags6GetTagEjPvjj+0x134>
    8958:	e3c33102 	bic	r3, r3, #-2147483648	; 0x80000000
    895c:	e5843010 	str	r3, [r4, #16]
    8960:	e3530000 	cmp	r3, #0
    8964:	03a00000 	moveq	r0, #0
    8968:	0a000005 	beq	8984 <_ZN16CBcmPropertyTags6GetTagEjPvjj+0x134>
    896c:	e1a00008 	mov	r0, r8
    8970:	e1a01007 	mov	r1, r7
    8974:	e1a02005 	mov	r2, r5
    8978:	eb000650 	bl	a2c0 <memcpy>
    897c:	e3a00001 	mov	r0, #1
    8980:	eaffffff 	b	8984 <_ZN16CBcmPropertyTags6GetTagEjPvjj+0x134>
    8984:	e24bd024 	sub	sp, fp, #36	; 0x24
    8988:	e8bd8ff8 	pop	{r3, r4, r5, r6, r7, r8, r9, sl, fp, pc}
    898c:	0000e7c8 	andeq	lr, r0, r8, asr #15
    8990:	0000e7d4 	ldrdeq	lr, [r0], -r4
    8994:	0000e7e8 	andeq	lr, r0, r8, ror #15
    8998:	0000e810 	andeq	lr, r0, r0, lsl r8

0000899c <_ZN8CGPIOPinD1Ev>:
    899c:	e59f2018 	ldr	r2, [pc, #24]	; 89bc <_ZN8CGPIOPinD1Ev+0x20>
    89a0:	e5802000 	str	r2, [r0]
    89a4:	e3a02000 	mov	r2, #0
    89a8:	e5802014 	str	r2, [r0, #20]
    89ac:	e5802010 	str	r2, [r0, #16]
    89b0:	e3a02036 	mov	r2, #54	; 0x36
    89b4:	e5802004 	str	r2, [r0, #4]
    89b8:	e12fff1e 	bx	lr
    89bc:	0000e830 	andeq	lr, r0, r0, lsr r8

000089c0 <_ZN8CGPIOPinD0Ev>:
    89c0:	e92d4010 	push	{r4, lr}
    89c4:	e1a04000 	mov	r4, r0
    89c8:	ebfffff3 	bl	899c <_ZN8CGPIOPinD1Ev>
    89cc:	e1a00004 	mov	r0, r4
    89d0:	eb00039f 	bl	9854 <_ZdlPv>
    89d4:	e1a00004 	mov	r0, r4
    89d8:	e8bd8010 	pop	{r4, pc}

000089dc <_ZN8CGPIOPin5WriteEj>:
    89dc:	e92d4038 	push	{r3, r4, r5, lr}
    89e0:	e1a04000 	mov	r4, r0
    89e4:	e1a05001 	mov	r5, r1
    89e8:	e5d03008 	ldrb	r3, [r0, #8]
    89ec:	e3530003 	cmp	r3, #3
    89f0:	9a000003 	bls	8a04 <_ZN8CGPIOPin5WriteEj+0x28>
    89f4:	e59f0084 	ldr	r0, [pc, #132]	; 8a80 <_ZN8CGPIOPin5WriteEj+0xa4>
    89f8:	e59f1084 	ldr	r1, [pc, #132]	; 8a84 <_ZN8CGPIOPin5WriteEj+0xa8>
    89fc:	e3a02077 	mov	r2, #119	; 0x77
    8a00:	eb000c66 	bl	bba0 <assertion_failed>
    8a04:	e3a03000 	mov	r3, #0
    8a08:	ee073fba 	mcr	15, 0, r3, cr7, cr10, {5}
    8a0c:	e3550001 	cmp	r5, #1
    8a10:	9a000003 	bls	8a24 <_ZN8CGPIOPin5WriteEj+0x48>
    8a14:	e59f006c 	ldr	r0, [pc, #108]	; 8a88 <_ZN8CGPIOPin5WriteEj+0xac>
    8a18:	e59f1064 	ldr	r1, [pc, #100]	; 8a84 <_ZN8CGPIOPin5WriteEj+0xa8>
    8a1c:	e3a0207b 	mov	r2, #123	; 0x7b
    8a20:	eb000c5e 	bl	bba0 <assertion_failed>
    8a24:	e584500c 	str	r5, [r4, #12]
    8a28:	e5943004 	ldr	r3, [r4, #4]
    8a2c:	e3530035 	cmp	r3, #53	; 0x35
    8a30:	9a000003 	bls	8a44 <_ZN8CGPIOPin5WriteEj+0x68>
    8a34:	e59f0050 	ldr	r0, [pc, #80]	; 8a8c <_ZN8CGPIOPin5WriteEj+0xb0>
    8a38:	e59f1044 	ldr	r1, [pc, #68]	; 8a84 <_ZN8CGPIOPin5WriteEj+0xa8>
    8a3c:	e3a0207e 	mov	r2, #126	; 0x7e
    8a40:	eb000c56 	bl	bba0 <assertion_failed>
    8a44:	e594100c 	ldr	r1, [r4, #12]
    8a48:	e59f2040 	ldr	r2, [pc, #64]	; 8a90 <_ZN8CGPIOPin5WriteEj+0xb4>
    8a4c:	e59f3040 	ldr	r3, [pc, #64]	; 8a94 <_ZN8CGPIOPin5WriteEj+0xb8>
    8a50:	e3510000 	cmp	r1, #0
    8a54:	11a03002 	movne	r3, r2
    8a58:	e5941004 	ldr	r1, [r4, #4]
    8a5c:	e1a002a1 	lsr	r0, r1, #5
    8a60:	e201101f 	and	r1, r1, #31
    8a64:	e0830100 	add	r0, r3, r0, lsl #2
    8a68:	e3a03001 	mov	r3, #1
    8a6c:	e1a01113 	lsl	r1, r3, r1
    8a70:	eb000286 	bl	9490 <write32>
    8a74:	e3a03000 	mov	r3, #0
    8a78:	ee073fba 	mcr	15, 0, r3, cr7, cr10, {5}
    8a7c:	e8bd8038 	pop	{r3, r4, r5, pc}
    8a80:	0000e850 	andeq	lr, r0, r0, asr r8
    8a84:	0000e874 	andeq	lr, r0, r4, ror r8
    8a88:	0000e880 	andeq	lr, r0, r0, lsl #17
    8a8c:	0000e8a0 	andeq	lr, r0, r0, lsr #17
    8a90:	2020001c 	eorcs	r0, r0, ip, lsl r0
    8a94:	20200028 	eorcs	r0, r0, r8, lsr #32

00008a98 <_ZNK8CGPIOPin4ReadEv>:
    8a98:	e92d4010 	push	{r4, lr}
    8a9c:	e1a04000 	mov	r4, r0
    8aa0:	e5d03008 	ldrb	r3, [r0, #8]
    8aa4:	e2432002 	sub	r2, r3, #2
    8aa8:	e6ef2072 	uxtb	r2, r2
    8aac:	e3530000 	cmp	r3, #0
    8ab0:	13520001 	cmpne	r2, #1
    8ab4:	9a000003 	bls	8ac8 <_ZNK8CGPIOPin4ReadEv+0x30>
    8ab8:	e59f0060 	ldr	r0, [pc, #96]	; 8b20 <_ZNK8CGPIOPin4ReadEv+0x88>
    8abc:	e59f1060 	ldr	r1, [pc, #96]	; 8b24 <_ZNK8CGPIOPin4ReadEv+0x8c>
    8ac0:	e3a0208b 	mov	r2, #139	; 0x8b
    8ac4:	eb000c35 	bl	bba0 <assertion_failed>
    8ac8:	e3a03000 	mov	r3, #0
    8acc:	ee073fba 	mcr	15, 0, r3, cr7, cr10, {5}
    8ad0:	e5943004 	ldr	r3, [r4, #4]
    8ad4:	e3530035 	cmp	r3, #53	; 0x35
    8ad8:	9a000003 	bls	8aec <_ZNK8CGPIOPin4ReadEv+0x54>
    8adc:	e59f0044 	ldr	r0, [pc, #68]	; 8b28 <_ZNK8CGPIOPin4ReadEv+0x90>
    8ae0:	e59f103c 	ldr	r1, [pc, #60]	; 8b24 <_ZNK8CGPIOPin4ReadEv+0x8c>
    8ae4:	e3a0208f 	mov	r2, #143	; 0x8f
    8ae8:	eb000c2c 	bl	bba0 <assertion_failed>
    8aec:	e5944004 	ldr	r4, [r4, #4]
    8af0:	e59f0034 	ldr	r0, [pc, #52]	; 8b2c <_ZNK8CGPIOPin4ReadEv+0x94>
    8af4:	e08002a4 	add	r0, r0, r4, lsr #5
    8af8:	e1a00100 	lsl	r0, r0, #2
    8afc:	eb000261 	bl	9488 <read32>
    8b00:	e3a03000 	mov	r3, #0
    8b04:	ee073fba 	mcr	15, 0, r3, cr7, cr10, {5}
    8b08:	e204401f 	and	r4, r4, #31
    8b0c:	e3a03001 	mov	r3, #1
    8b10:	e0103413 	ands	r3, r0, r3, lsl r4
    8b14:	03a00000 	moveq	r0, #0
    8b18:	13a00001 	movne	r0, #1
    8b1c:	e8bd8010 	pop	{r4, pc}
    8b20:	0000e8b4 			; <UNDEFINED> instruction: 0x0000e8b4
    8b24:	0000e874 	andeq	lr, r0, r4, ror r8
    8b28:	0000e8a0 	andeq	lr, r0, r0, lsr #17
    8b2c:	0808000d 	stmdaeq	r8, {r0, r2, r3}

00008b30 <_ZN8CGPIOPin6InvertEv>:
    8b30:	e92d4010 	push	{r4, lr}
    8b34:	e1a04000 	mov	r4, r0
    8b38:	e5d03008 	ldrb	r3, [r0, #8]
    8b3c:	e3530001 	cmp	r3, #1
    8b40:	0a000003 	beq	8b54 <_ZN8CGPIOPin6InvertEv+0x24>
    8b44:	e59f001c 	ldr	r0, [pc, #28]	; 8b68 <_ZN8CGPIOPin6InvertEv+0x38>
    8b48:	e59f101c 	ldr	r1, [pc, #28]	; 8b6c <_ZN8CGPIOPin6InvertEv+0x3c>
    8b4c:	e3a0209c 	mov	r2, #156	; 0x9c
    8b50:	eb000c12 	bl	bba0 <assertion_failed>
    8b54:	e594100c 	ldr	r1, [r4, #12]
    8b58:	e1a00004 	mov	r0, r4
    8b5c:	e2211001 	eor	r1, r1, #1
    8b60:	ebffff9d 	bl	89dc <_ZN8CGPIOPin5WriteEj>
    8b64:	e8bd8010 	pop	{r4, pc}
    8b68:	0000e910 	andeq	lr, r0, r0, lsl r9
    8b6c:	0000e874 	andeq	lr, r0, r4, ror r8

00008b70 <_ZN8CGPIOPin16ConnectInterruptEPFvPvES0_>:
    8b70:	e92d4070 	push	{r4, r5, r6, lr}
    8b74:	e1a04000 	mov	r4, r0
    8b78:	e1a05001 	mov	r5, r1
    8b7c:	e1a06002 	mov	r6, r2
    8b80:	e5d03008 	ldrb	r3, [r0, #8]
    8b84:	e2432002 	sub	r2, r3, #2
    8b88:	e6ef2072 	uxtb	r2, r2
    8b8c:	e3530000 	cmp	r3, #0
    8b90:	13520001 	cmpne	r2, #1
    8b94:	9a000003 	bls	8ba8 <_ZN8CGPIOPin16ConnectInterruptEPFvPvES0_+0x38>
    8b98:	e59f008c 	ldr	r0, [pc, #140]	; 8c2c <_ZN8CGPIOPin16ConnectInterruptEPFvPvES0_+0xbc>
    8b9c:	e59f108c 	ldr	r1, [pc, #140]	; 8c30 <_ZN8CGPIOPin16ConnectInterruptEPFvPvES0_+0xc0>
    8ba0:	e3a020a5 	mov	r2, #165	; 0xa5
    8ba4:	eb000bfd 	bl	bba0 <assertion_failed>
    8ba8:	e5d4301c 	ldrb	r3, [r4, #28]
    8bac:	e3530006 	cmp	r3, #6
    8bb0:	0a000003 	beq	8bc4 <_ZN8CGPIOPin16ConnectInterruptEPFvPvES0_+0x54>
    8bb4:	e59f0078 	ldr	r0, [pc, #120]	; 8c34 <_ZN8CGPIOPin16ConnectInterruptEPFvPvES0_+0xc4>
    8bb8:	e59f1070 	ldr	r1, [pc, #112]	; 8c30 <_ZN8CGPIOPin16ConnectInterruptEPFvPvES0_+0xc0>
    8bbc:	e3a020a7 	mov	r2, #167	; 0xa7
    8bc0:	eb000bf6 	bl	bba0 <assertion_failed>
    8bc4:	e3550000 	cmp	r5, #0
    8bc8:	1a000003 	bne	8bdc <_ZN8CGPIOPin16ConnectInterruptEPFvPvES0_+0x6c>
    8bcc:	e59f0064 	ldr	r0, [pc, #100]	; 8c38 <_ZN8CGPIOPin16ConnectInterruptEPFvPvES0_+0xc8>
    8bd0:	e59f1058 	ldr	r1, [pc, #88]	; 8c30 <_ZN8CGPIOPin16ConnectInterruptEPFvPvES0_+0xc0>
    8bd4:	e3a020a9 	mov	r2, #169	; 0xa9
    8bd8:	eb000bf0 	bl	bba0 <assertion_failed>
    8bdc:	e5943014 	ldr	r3, [r4, #20]
    8be0:	e3530000 	cmp	r3, #0
    8be4:	0a000003 	beq	8bf8 <_ZN8CGPIOPin16ConnectInterruptEPFvPvES0_+0x88>
    8be8:	e59f004c 	ldr	r0, [pc, #76]	; 8c3c <_ZN8CGPIOPin16ConnectInterruptEPFvPvES0_+0xcc>
    8bec:	e59f103c 	ldr	r1, [pc, #60]	; 8c30 <_ZN8CGPIOPin16ConnectInterruptEPFvPvES0_+0xc0>
    8bf0:	e3a020aa 	mov	r2, #170	; 0xaa
    8bf4:	eb000be9 	bl	bba0 <assertion_failed>
    8bf8:	e5845014 	str	r5, [r4, #20]
    8bfc:	e5846018 	str	r6, [r4, #24]
    8c00:	e5943010 	ldr	r3, [r4, #16]
    8c04:	e3530000 	cmp	r3, #0
    8c08:	1a000003 	bne	8c1c <_ZN8CGPIOPin16ConnectInterruptEPFvPvES0_+0xac>
    8c0c:	e59f002c 	ldr	r0, [pc, #44]	; 8c40 <_ZN8CGPIOPin16ConnectInterruptEPFvPvES0_+0xd0>
    8c10:	e59f1018 	ldr	r1, [pc, #24]	; 8c30 <_ZN8CGPIOPin16ConnectInterruptEPFvPvES0_+0xc0>
    8c14:	e3a020af 	mov	r2, #175	; 0xaf
    8c18:	eb000be0 	bl	bba0 <assertion_failed>
    8c1c:	e5940010 	ldr	r0, [r4, #16]
    8c20:	e1a01004 	mov	r1, r4
    8c24:	eb001350 	bl	d96c <_ZN12CGPIOManager16ConnectInterruptEP8CGPIOPin>
    8c28:	e8bd8070 	pop	{r4, r5, r6, pc}
    8c2c:	0000e8b4 			; <UNDEFINED> instruction: 0x0000e8b4
    8c30:	0000e874 	andeq	lr, r0, r4, ror r8
    8c34:	0000e92c 	andeq	lr, r0, ip, lsr #18
    8c38:	0000e950 	andeq	lr, r0, r0, asr r9
    8c3c:	0000e960 	andeq	lr, r0, r0, ror #18
    8c40:	0000e970 	andeq	lr, r0, r0, ror r9

00008c44 <_ZN8CGPIOPin19DisconnectInterruptEv>:
    8c44:	e92d4010 	push	{r4, lr}
    8c48:	e1a04000 	mov	r4, r0
    8c4c:	e5d03008 	ldrb	r3, [r0, #8]
    8c50:	e2432002 	sub	r2, r3, #2
    8c54:	e6ef2072 	uxtb	r2, r2
    8c58:	e3530000 	cmp	r3, #0
    8c5c:	13520001 	cmpne	r2, #1
    8c60:	9a000003 	bls	8c74 <_ZN8CGPIOPin19DisconnectInterruptEv+0x30>
    8c64:	e59f0074 	ldr	r0, [pc, #116]	; 8ce0 <_ZN8CGPIOPin19DisconnectInterruptEv+0x9c>
    8c68:	e59f1074 	ldr	r1, [pc, #116]	; 8ce4 <_ZN8CGPIOPin19DisconnectInterruptEv+0xa0>
    8c6c:	e3a020b7 	mov	r2, #183	; 0xb7
    8c70:	eb000bca 	bl	bba0 <assertion_failed>
    8c74:	e5d4301c 	ldrb	r3, [r4, #28]
    8c78:	e3530006 	cmp	r3, #6
    8c7c:	0a000003 	beq	8c90 <_ZN8CGPIOPin19DisconnectInterruptEv+0x4c>
    8c80:	e59f0060 	ldr	r0, [pc, #96]	; 8ce8 <_ZN8CGPIOPin19DisconnectInterruptEv+0xa4>
    8c84:	e59f1058 	ldr	r1, [pc, #88]	; 8ce4 <_ZN8CGPIOPin19DisconnectInterruptEv+0xa0>
    8c88:	e3a020b9 	mov	r2, #185	; 0xb9
    8c8c:	eb000bc3 	bl	bba0 <assertion_failed>
    8c90:	e5943014 	ldr	r3, [r4, #20]
    8c94:	e3530000 	cmp	r3, #0
    8c98:	1a000003 	bne	8cac <_ZN8CGPIOPin19DisconnectInterruptEv+0x68>
    8c9c:	e59f0048 	ldr	r0, [pc, #72]	; 8cec <_ZN8CGPIOPin19DisconnectInterruptEv+0xa8>
    8ca0:	e59f103c 	ldr	r1, [pc, #60]	; 8ce4 <_ZN8CGPIOPin19DisconnectInterruptEv+0xa0>
    8ca4:	e3a020bb 	mov	r2, #187	; 0xbb
    8ca8:	eb000bbc 	bl	bba0 <assertion_failed>
    8cac:	e3a03000 	mov	r3, #0
    8cb0:	e5843014 	str	r3, [r4, #20]
    8cb4:	e5943010 	ldr	r3, [r4, #16]
    8cb8:	e3530000 	cmp	r3, #0
    8cbc:	1a000003 	bne	8cd0 <_ZN8CGPIOPin19DisconnectInterruptEv+0x8c>
    8cc0:	e59f0028 	ldr	r0, [pc, #40]	; 8cf0 <_ZN8CGPIOPin19DisconnectInterruptEv+0xac>
    8cc4:	e59f1018 	ldr	r1, [pc, #24]	; 8ce4 <_ZN8CGPIOPin19DisconnectInterruptEv+0xa0>
    8cc8:	e3a020be 	mov	r2, #190	; 0xbe
    8ccc:	eb000bb3 	bl	bba0 <assertion_failed>
    8cd0:	e5940010 	ldr	r0, [r4, #16]
    8cd4:	e1a01004 	mov	r1, r4
    8cd8:	eb001349 	bl	da04 <_ZN12CGPIOManager19DisconnectInterruptEP8CGPIOPin>
    8cdc:	e8bd8010 	pop	{r4, pc}
    8ce0:	0000e8b4 			; <UNDEFINED> instruction: 0x0000e8b4
    8ce4:	0000e874 	andeq	lr, r0, r4, ror r8
    8ce8:	0000e92c 	andeq	lr, r0, ip, lsr #18
    8cec:	0000e980 	andeq	lr, r0, r0, lsl #19
    8cf0:	0000e970 	andeq	lr, r0, r0, ror r9

00008cf4 <_ZN8CGPIOPin15EnableInterruptE14TGPIOInterrupt>:
    8cf4:	e92d4038 	push	{r3, r4, r5, lr}
    8cf8:	e1a04000 	mov	r4, r0
    8cfc:	e1a05001 	mov	r5, r1
    8d00:	e5d03008 	ldrb	r3, [r0, #8]
    8d04:	e2432002 	sub	r2, r3, #2
    8d08:	e6ef2072 	uxtb	r2, r2
    8d0c:	e3530000 	cmp	r3, #0
    8d10:	13520001 	cmpne	r2, #1
    8d14:	9a000003 	bls	8d28 <_ZN8CGPIOPin15EnableInterruptE14TGPIOInterrupt+0x34>
    8d18:	e59f00f8 	ldr	r0, [pc, #248]	; 8e18 <_ZN8CGPIOPin15EnableInterruptE14TGPIOInterrupt+0x124>
    8d1c:	e59f10f8 	ldr	r1, [pc, #248]	; 8e1c <_ZN8CGPIOPin15EnableInterruptE14TGPIOInterrupt+0x128>
    8d20:	e3a020c6 	mov	r2, #198	; 0xc6
    8d24:	eb000b9d 	bl	bba0 <assertion_failed>
    8d28:	e5943010 	ldr	r3, [r4, #16]
    8d2c:	e3530000 	cmp	r3, #0
    8d30:	1a000003 	bne	8d44 <_ZN8CGPIOPin15EnableInterruptE14TGPIOInterrupt+0x50>
    8d34:	e59f00e4 	ldr	r0, [pc, #228]	; 8e20 <_ZN8CGPIOPin15EnableInterruptE14TGPIOInterrupt+0x12c>
    8d38:	e59f10dc 	ldr	r1, [pc, #220]	; 8e1c <_ZN8CGPIOPin15EnableInterruptE14TGPIOInterrupt+0x128>
    8d3c:	e3a020c7 	mov	r2, #199	; 0xc7
    8d40:	eb000b96 	bl	bba0 <assertion_failed>
    8d44:	e5943014 	ldr	r3, [r4, #20]
    8d48:	e3530000 	cmp	r3, #0
    8d4c:	1a000003 	bne	8d60 <_ZN8CGPIOPin15EnableInterruptE14TGPIOInterrupt+0x6c>
    8d50:	e59f00cc 	ldr	r0, [pc, #204]	; 8e24 <_ZN8CGPIOPin15EnableInterruptE14TGPIOInterrupt+0x130>
    8d54:	e59f10c0 	ldr	r1, [pc, #192]	; 8e1c <_ZN8CGPIOPin15EnableInterruptE14TGPIOInterrupt+0x128>
    8d58:	e3a020c8 	mov	r2, #200	; 0xc8
    8d5c:	eb000b8f 	bl	bba0 <assertion_failed>
    8d60:	e5d4301c 	ldrb	r3, [r4, #28]
    8d64:	e3530006 	cmp	r3, #6
    8d68:	0a000003 	beq	8d7c <_ZN8CGPIOPin15EnableInterruptE14TGPIOInterrupt+0x88>
    8d6c:	e59f00b4 	ldr	r0, [pc, #180]	; 8e28 <_ZN8CGPIOPin15EnableInterruptE14TGPIOInterrupt+0x134>
    8d70:	e59f10a4 	ldr	r1, [pc, #164]	; 8e1c <_ZN8CGPIOPin15EnableInterruptE14TGPIOInterrupt+0x128>
    8d74:	e3a020ca 	mov	r2, #202	; 0xca
    8d78:	eb000b88 	bl	bba0 <assertion_failed>
    8d7c:	e3550005 	cmp	r5, #5
    8d80:	9a000003 	bls	8d94 <_ZN8CGPIOPin15EnableInterruptE14TGPIOInterrupt+0xa0>
    8d84:	e59f00a0 	ldr	r0, [pc, #160]	; 8e2c <_ZN8CGPIOPin15EnableInterruptE14TGPIOInterrupt+0x138>
    8d88:	e59f108c 	ldr	r1, [pc, #140]	; 8e1c <_ZN8CGPIOPin15EnableInterruptE14TGPIOInterrupt+0x128>
    8d8c:	e3a020cb 	mov	r2, #203	; 0xcb
    8d90:	eb000b82 	bl	bba0 <assertion_failed>
    8d94:	e5c4501c 	strb	r5, [r4, #28]
    8d98:	e5943004 	ldr	r3, [r4, #4]
    8d9c:	e3530035 	cmp	r3, #53	; 0x35
    8da0:	9a000003 	bls	8db4 <_ZN8CGPIOPin15EnableInterruptE14TGPIOInterrupt+0xc0>
    8da4:	e59f0084 	ldr	r0, [pc, #132]	; 8e30 <_ZN8CGPIOPin15EnableInterruptE14TGPIOInterrupt+0x13c>
    8da8:	e59f106c 	ldr	r1, [pc, #108]	; 8e1c <_ZN8CGPIOPin15EnableInterruptE14TGPIOInterrupt+0x128>
    8dac:	e3a020ce 	mov	r2, #206	; 0xce
    8db0:	eb000b7a 	bl	bba0 <assertion_failed>
    8db4:	e5941004 	ldr	r1, [r4, #4]
    8db8:	e0855085 	add	r5, r5, r5, lsl #1
    8dbc:	e59f3070 	ldr	r3, [pc, #112]	; 8e34 <_ZN8CGPIOPin15EnableInterruptE14TGPIOInterrupt+0x140>
    8dc0:	e08332a1 	add	r3, r3, r1, lsr #5
    8dc4:	e1a03103 	lsl	r3, r3, #2
    8dc8:	e0835105 	add	r5, r3, r5, lsl #2
    8dcc:	e201101f 	and	r1, r1, #31
    8dd0:	e3a04001 	mov	r4, #1
    8dd4:	e1a04114 	lsl	r4, r4, r1
    8dd8:	e59f3058 	ldr	r3, [pc, #88]	; 8e38 <_ZN8CGPIOPin15EnableInterruptE14TGPIOInterrupt+0x144>
    8ddc:	e5933000 	ldr	r3, [r3]
    8de0:	e3530000 	cmp	r3, #0
    8de4:	0a000000 	beq	8dec <_ZN8CGPIOPin15EnableInterruptE14TGPIOInterrupt+0xf8>
    8de8:	eb0002a3 	bl	987c <EnterCritical>
    8dec:	e1a00005 	mov	r0, r5
    8df0:	eb0001a4 	bl	9488 <read32>
    8df4:	e1801004 	orr	r1, r0, r4
    8df8:	e1a00005 	mov	r0, r5
    8dfc:	eb0001a3 	bl	9490 <write32>
    8e00:	e59f3030 	ldr	r3, [pc, #48]	; 8e38 <_ZN8CGPIOPin15EnableInterruptE14TGPIOInterrupt+0x144>
    8e04:	e5933000 	ldr	r3, [r3]
    8e08:	e3530000 	cmp	r3, #0
    8e0c:	08bd8038 	popeq	{r3, r4, r5, pc}
    8e10:	eb0002a9 	bl	98bc <LeaveCritical>
    8e14:	e8bd8038 	pop	{r3, r4, r5, pc}
    8e18:	0000e8b4 			; <UNDEFINED> instruction: 0x0000e8b4
    8e1c:	0000e874 	andeq	lr, r0, r4, ror r8
    8e20:	0000e970 	andeq	lr, r0, r0, ror r9
    8e24:	0000e980 	andeq	lr, r0, r0, lsl #19
    8e28:	0000e92c 	andeq	lr, r0, ip, lsr #18
    8e2c:	0000e990 	muleq	r0, r0, r9
    8e30:	0000e8a0 	andeq	lr, r0, r0, lsr #17
    8e34:	08080013 	stmdaeq	r8, {r0, r1, r4}
    8e38:	000100ec 	andeq	r0, r1, ip, ror #1

00008e3c <_ZN8CGPIOPin16DisableInterruptEv>:
    8e3c:	e92d4070 	push	{r4, r5, r6, lr}
    8e40:	e1a04000 	mov	r4, r0
    8e44:	e5d03008 	ldrb	r3, [r0, #8]
    8e48:	e2432002 	sub	r2, r3, #2
    8e4c:	e6ef2072 	uxtb	r2, r2
    8e50:	e3530000 	cmp	r3, #0
    8e54:	13520001 	cmpne	r2, #1
    8e58:	9a000003 	bls	8e6c <_ZN8CGPIOPin16DisableInterruptEv+0x30>
    8e5c:	e59f00b0 	ldr	r0, [pc, #176]	; 8f14 <_ZN8CGPIOPin16DisableInterruptEv+0xd8>
    8e60:	e59f10b0 	ldr	r1, [pc, #176]	; 8f18 <_ZN8CGPIOPin16DisableInterruptEv+0xdc>
    8e64:	e3a020df 	mov	r2, #223	; 0xdf
    8e68:	eb000b4c 	bl	bba0 <assertion_failed>
    8e6c:	e5d4301c 	ldrb	r3, [r4, #28]
    8e70:	e3530005 	cmp	r3, #5
    8e74:	9a000003 	bls	8e88 <_ZN8CGPIOPin16DisableInterruptEv+0x4c>
    8e78:	e59f009c 	ldr	r0, [pc, #156]	; 8f1c <_ZN8CGPIOPin16DisableInterruptEv+0xe0>
    8e7c:	e59f1094 	ldr	r1, [pc, #148]	; 8f18 <_ZN8CGPIOPin16DisableInterruptEv+0xdc>
    8e80:	e3a020e1 	mov	r2, #225	; 0xe1
    8e84:	eb000b45 	bl	bba0 <assertion_failed>
    8e88:	e5943004 	ldr	r3, [r4, #4]
    8e8c:	e3530035 	cmp	r3, #53	; 0x35
    8e90:	9a000003 	bls	8ea4 <_ZN8CGPIOPin16DisableInterruptEv+0x68>
    8e94:	e59f0084 	ldr	r0, [pc, #132]	; 8f20 <_ZN8CGPIOPin16DisableInterruptEv+0xe4>
    8e98:	e59f1078 	ldr	r1, [pc, #120]	; 8f18 <_ZN8CGPIOPin16DisableInterruptEv+0xdc>
    8e9c:	e3a020e3 	mov	r2, #227	; 0xe3
    8ea0:	eb000b3e 	bl	bba0 <assertion_failed>
    8ea4:	e5941004 	ldr	r1, [r4, #4]
    8ea8:	e5d4501c 	ldrb	r5, [r4, #28]
    8eac:	e0855085 	add	r5, r5, r5, lsl #1
    8eb0:	e59f306c 	ldr	r3, [pc, #108]	; 8f24 <_ZN8CGPIOPin16DisableInterruptEv+0xe8>
    8eb4:	e08332a1 	add	r3, r3, r1, lsr #5
    8eb8:	e1a03103 	lsl	r3, r3, #2
    8ebc:	e0835105 	add	r5, r3, r5, lsl #2
    8ec0:	e201101f 	and	r1, r1, #31
    8ec4:	e3a06001 	mov	r6, #1
    8ec8:	e1a06116 	lsl	r6, r6, r1
    8ecc:	e59f3054 	ldr	r3, [pc, #84]	; 8f28 <_ZN8CGPIOPin16DisableInterruptEv+0xec>
    8ed0:	e5933000 	ldr	r3, [r3]
    8ed4:	e3530000 	cmp	r3, #0
    8ed8:	0a000000 	beq	8ee0 <_ZN8CGPIOPin16DisableInterruptEv+0xa4>
    8edc:	eb000266 	bl	987c <EnterCritical>
    8ee0:	e1a00005 	mov	r0, r5
    8ee4:	eb000167 	bl	9488 <read32>
    8ee8:	e1c01006 	bic	r1, r0, r6
    8eec:	e1a00005 	mov	r0, r5
    8ef0:	eb000166 	bl	9490 <write32>
    8ef4:	e59f302c 	ldr	r3, [pc, #44]	; 8f28 <_ZN8CGPIOPin16DisableInterruptEv+0xec>
    8ef8:	e5933000 	ldr	r3, [r3]
    8efc:	e3530000 	cmp	r3, #0
    8f00:	0a000000 	beq	8f08 <_ZN8CGPIOPin16DisableInterruptEv+0xcc>
    8f04:	eb00026c 	bl	98bc <LeaveCritical>
    8f08:	e3a03006 	mov	r3, #6
    8f0c:	e5c4301c 	strb	r3, [r4, #28]
    8f10:	e8bd8070 	pop	{r4, r5, r6, pc}
    8f14:	0000e8b4 			; <UNDEFINED> instruction: 0x0000e8b4
    8f18:	0000e874 	andeq	lr, r0, r4, ror r8
    8f1c:	0000e9b4 			; <UNDEFINED> instruction: 0x0000e9b4
    8f20:	0000e8a0 	andeq	lr, r0, r0, lsr #17
    8f24:	08080013 	stmdaeq	r8, {r0, r1, r4}
    8f28:	000100ec 	andeq	r0, r1, ip, ror #1

00008f2c <_ZN8CGPIOPin13SetPullUpModeEj>:
    8f2c:	e92d40f8 	push	{r3, r4, r5, r6, r7, lr}
    8f30:	e1a04000 	mov	r4, r0
    8f34:	e1a06001 	mov	r6, r1
    8f38:	e5903004 	ldr	r3, [r0, #4]
    8f3c:	e3530035 	cmp	r3, #53	; 0x35
    8f40:	9a000003 	bls	8f54 <_ZN8CGPIOPin13SetPullUpModeEj+0x28>
    8f44:	e59f00a8 	ldr	r0, [pc, #168]	; 8ff4 <_ZN8CGPIOPin13SetPullUpModeEj+0xc8>
    8f48:	e59f10a8 	ldr	r1, [pc, #168]	; 8ff8 <_ZN8CGPIOPin13SetPullUpModeEj+0xcc>
    8f4c:	e3a020f3 	mov	r2, #243	; 0xf3
    8f50:	eb000b12 	bl	bba0 <assertion_failed>
    8f54:	e5941004 	ldr	r1, [r4, #4]
    8f58:	e59f409c 	ldr	r4, [pc, #156]	; 8ffc <_ZN8CGPIOPin13SetPullUpModeEj+0xd0>
    8f5c:	e08442a1 	add	r4, r4, r1, lsr #5
    8f60:	e1a04104 	lsl	r4, r4, #2
    8f64:	e201701f 	and	r7, r1, #31
    8f68:	e59f3090 	ldr	r3, [pc, #144]	; 9000 <_ZN8CGPIOPin13SetPullUpModeEj+0xd4>
    8f6c:	e5933000 	ldr	r3, [r3]
    8f70:	e3530000 	cmp	r3, #0
    8f74:	0a000000 	beq	8f7c <_ZN8CGPIOPin13SetPullUpModeEj+0x50>
    8f78:	eb00023f 	bl	987c <EnterCritical>
    8f7c:	e3560002 	cmp	r6, #2
    8f80:	9a000003 	bls	8f94 <_ZN8CGPIOPin13SetPullUpModeEj+0x68>
    8f84:	e59f0078 	ldr	r0, [pc, #120]	; 9004 <_ZN8CGPIOPin13SetPullUpModeEj+0xd8>
    8f88:	e59f1068 	ldr	r1, [pc, #104]	; 8ff8 <_ZN8CGPIOPin13SetPullUpModeEj+0xcc>
    8f8c:	e3a020f9 	mov	r2, #249	; 0xf9
    8f90:	eb000b02 	bl	bba0 <assertion_failed>
    8f94:	e59f506c 	ldr	r5, [pc, #108]	; 9008 <_ZN8CGPIOPin13SetPullUpModeEj+0xdc>
    8f98:	e1a00005 	mov	r0, r5
    8f9c:	e1a01006 	mov	r1, r6
    8fa0:	eb00013a 	bl	9490 <write32>
    8fa4:	e3a00096 	mov	r0, #150	; 0x96
    8fa8:	eb0003ff 	bl	9fac <_ZN6CTimer13SimpleusDelayEj>
    8fac:	e1a00004 	mov	r0, r4
    8fb0:	e3a01001 	mov	r1, #1
    8fb4:	e1a01711 	lsl	r1, r1, r7
    8fb8:	eb000134 	bl	9490 <write32>
    8fbc:	e3a00096 	mov	r0, #150	; 0x96
    8fc0:	eb0003f9 	bl	9fac <_ZN6CTimer13SimpleusDelayEj>
    8fc4:	e1a00005 	mov	r0, r5
    8fc8:	e3a01000 	mov	r1, #0
    8fcc:	eb00012f 	bl	9490 <write32>
    8fd0:	e1a00004 	mov	r0, r4
    8fd4:	e3a01000 	mov	r1, #0
    8fd8:	eb00012c 	bl	9490 <write32>
    8fdc:	e59f301c 	ldr	r3, [pc, #28]	; 9000 <_ZN8CGPIOPin13SetPullUpModeEj+0xd4>
    8fe0:	e5933000 	ldr	r3, [r3]
    8fe4:	e3530000 	cmp	r3, #0
    8fe8:	08bd80f8 	popeq	{r3, r4, r5, r6, r7, pc}
    8fec:	eb000232 	bl	98bc <LeaveCritical>
    8ff0:	e8bd80f8 	pop	{r3, r4, r5, r6, r7, pc}
    8ff4:	0000e8a0 	andeq	lr, r0, r0, lsr #17
    8ff8:	0000e874 	andeq	lr, r0, r4, ror r8
    8ffc:	08080026 	stmdaeq	r8, {r1, r2, r5}
    9000:	000100ec 	andeq	r0, r1, ip, ror #1
    9004:	0000e9d8 	ldrdeq	lr, [r0], -r8
    9008:	20200094 	mlacs	r0, r4, r0, r0

0000900c <_ZN8CGPIOPin20SetAlternateFunctionEj>:
    900c:	e92d4070 	push	{r4, r5, r6, lr}
    9010:	e1a04000 	mov	r4, r0
    9014:	e1a06001 	mov	r6, r1
    9018:	e5903004 	ldr	r3, [r0, #4]
    901c:	e3530035 	cmp	r3, #53	; 0x35
    9020:	9a000003 	bls	9034 <_ZN8CGPIOPin20SetAlternateFunctionEj+0x28>
    9024:	e59f009c 	ldr	r0, [pc, #156]	; 90c8 <_ZN8CGPIOPin20SetAlternateFunctionEj+0xbc>
    9028:	e59f109c 	ldr	r1, [pc, #156]	; 90cc <_ZN8CGPIOPin20SetAlternateFunctionEj+0xc0>
    902c:	e59f209c 	ldr	r2, [pc, #156]	; 90d0 <_ZN8CGPIOPin20SetAlternateFunctionEj+0xc4>
    9030:	eb000ada 	bl	bba0 <assertion_failed>
    9034:	e5942004 	ldr	r2, [r4, #4]
    9038:	e59f3094 	ldr	r3, [pc, #148]	; 90d4 <_ZN8CGPIOPin20SetAlternateFunctionEj+0xc8>
    903c:	e0831293 	umull	r1, r3, r3, r2
    9040:	e1a031a3 	lsr	r3, r3, #3
    9044:	e2835302 	add	r5, r3, #134217728	; 0x8000000
    9048:	e2855702 	add	r5, r5, #524288	; 0x80000
    904c:	e1a05105 	lsl	r5, r5, #2
    9050:	e0833103 	add	r3, r3, r3, lsl #2
    9054:	e0424083 	sub	r4, r2, r3, lsl #1
    9058:	e0844084 	add	r4, r4, r4, lsl #1
    905c:	e3560005 	cmp	r6, #5
    9060:	9a000003 	bls	9074 <_ZN8CGPIOPin20SetAlternateFunctionEj+0x68>
    9064:	e59f006c 	ldr	r0, [pc, #108]	; 90d8 <_ZN8CGPIOPin20SetAlternateFunctionEj+0xcc>
    9068:	e59f105c 	ldr	r1, [pc, #92]	; 90cc <_ZN8CGPIOPin20SetAlternateFunctionEj+0xc0>
    906c:	e59f2068 	ldr	r2, [pc, #104]	; 90dc <_ZN8CGPIOPin20SetAlternateFunctionEj+0xd0>
    9070:	eb000aca 	bl	bba0 <assertion_failed>
    9074:	e59f3064 	ldr	r3, [pc, #100]	; 90e0 <_ZN8CGPIOPin20SetAlternateFunctionEj+0xd4>
    9078:	e5933000 	ldr	r3, [r3]
    907c:	e3530000 	cmp	r3, #0
    9080:	0a000000 	beq	9088 <_ZN8CGPIOPin20SetAlternateFunctionEj+0x7c>
    9084:	eb0001fc 	bl	987c <EnterCritical>
    9088:	e1a00005 	mov	r0, r5
    908c:	eb0000fd 	bl	9488 <read32>
    9090:	e3a03007 	mov	r3, #7
    9094:	e1c03413 	bic	r3, r0, r3, lsl r4
    9098:	e59f2044 	ldr	r2, [pc, #68]	; 90e4 <_ZN8CGPIOPin20SetAlternateFunctionEj+0xd8>
    909c:	e0826106 	add	r6, r2, r6, lsl #2
    90a0:	e5961010 	ldr	r1, [r6, #16]
    90a4:	e1a00005 	mov	r0, r5
    90a8:	e1831411 	orr	r1, r3, r1, lsl r4
    90ac:	eb0000f7 	bl	9490 <write32>
    90b0:	e59f3028 	ldr	r3, [pc, #40]	; 90e0 <_ZN8CGPIOPin20SetAlternateFunctionEj+0xd4>
    90b4:	e5933000 	ldr	r3, [r3]
    90b8:	e3530000 	cmp	r3, #0
    90bc:	08bd8070 	popeq	{r4, r5, r6, pc}
    90c0:	eb0001fd 	bl	98bc <LeaveCritical>
    90c4:	e8bd8070 	pop	{r4, r5, r6, pc}
    90c8:	0000e8a0 	andeq	lr, r0, r0, lsr #17
    90cc:	0000e874 	andeq	lr, r0, r4, ror r8
    90d0:	00000106 	andeq	r0, r0, r6, lsl #2
    90d4:	cccccccd 	stclgt	12, cr12, [ip], {205}	; 0xcd
    90d8:	0000e9e4 	andeq	lr, r0, r4, ror #19
    90dc:	0000010a 	andeq	r0, r0, sl, lsl #2
    90e0:	000100ec 	andeq	r0, r1, ip, ror #1
    90e4:	0000e828 	andeq	lr, r0, r8, lsr #16

000090e8 <_ZN8CGPIOPin7SetModeE9TGPIOModei>:
    90e8:	e92d40f8 	push	{r3, r4, r5, r6, r7, lr}
    90ec:	e1a04000 	mov	r4, r0
    90f0:	e1a05001 	mov	r5, r1
    90f4:	e1a06002 	mov	r6, r2
    90f8:	e3510009 	cmp	r1, #9
    90fc:	9a000003 	bls	9110 <_ZN8CGPIOPin7SetModeE9TGPIOModei+0x28>
    9100:	e59f017c 	ldr	r0, [pc, #380]	; 9284 <_ZN8CGPIOPin7SetModeE9TGPIOModei+0x19c>
    9104:	e59f117c 	ldr	r1, [pc, #380]	; 9288 <_ZN8CGPIOPin7SetModeE9TGPIOModei+0x1a0>
    9108:	e3a02034 	mov	r2, #52	; 0x34
    910c:	eb000aa3 	bl	bba0 <assertion_failed>
    9110:	e5c45008 	strb	r5, [r4, #8]
    9114:	e3a03000 	mov	r3, #0
    9118:	ee073fba 	mcr	15, 0, r3, cr7, cr10, {5}
    911c:	e5d43008 	ldrb	r3, [r4, #8]
    9120:	e2432004 	sub	r2, r3, #4
    9124:	e6ef2072 	uxtb	r2, r2
    9128:	e3520005 	cmp	r2, #5
    912c:	8a00000b 	bhi	9160 <_ZN8CGPIOPin7SetModeE9TGPIOModei+0x78>
    9130:	e3560000 	cmp	r6, #0
    9134:	0a000002 	beq	9144 <_ZN8CGPIOPin7SetModeE9TGPIOModei+0x5c>
    9138:	e1a00004 	mov	r0, r4
    913c:	e3a01000 	mov	r1, #0
    9140:	ebffff79 	bl	8f2c <_ZN8CGPIOPin13SetPullUpModeEj>
    9144:	e5d41008 	ldrb	r1, [r4, #8]
    9148:	e1a00004 	mov	r0, r4
    914c:	e2411004 	sub	r1, r1, #4
    9150:	ebffffad 	bl	900c <_ZN8CGPIOPin20SetAlternateFunctionEj>
    9154:	e3a03000 	mov	r3, #0
    9158:	ee073fba 	mcr	15, 0, r3, cr7, cr10, {5}
    915c:	e8bd80f8 	pop	{r3, r4, r5, r6, r7, pc}
    9160:	e3560000 	cmp	r6, #0
    9164:	0a000004 	beq	917c <_ZN8CGPIOPin7SetModeE9TGPIOModei+0x94>
    9168:	e3530001 	cmp	r3, #1
    916c:	1a000002 	bne	917c <_ZN8CGPIOPin7SetModeE9TGPIOModei+0x94>
    9170:	e1a00004 	mov	r0, r4
    9174:	e3a01000 	mov	r1, #0
    9178:	ebffff6b 	bl	8f2c <_ZN8CGPIOPin13SetPullUpModeEj>
    917c:	e5943004 	ldr	r3, [r4, #4]
    9180:	e3530035 	cmp	r3, #53	; 0x35
    9184:	9a000003 	bls	9198 <_ZN8CGPIOPin7SetModeE9TGPIOModei+0xb0>
    9188:	e59f00fc 	ldr	r0, [pc, #252]	; 928c <_ZN8CGPIOPin7SetModeE9TGPIOModei+0x1a4>
    918c:	e59f10f4 	ldr	r1, [pc, #244]	; 9288 <_ZN8CGPIOPin7SetModeE9TGPIOModei+0x1a0>
    9190:	e3a0204d 	mov	r2, #77	; 0x4d
    9194:	eb000a81 	bl	bba0 <assertion_failed>
    9198:	e5942004 	ldr	r2, [r4, #4]
    919c:	e59f30ec 	ldr	r3, [pc, #236]	; 9290 <_ZN8CGPIOPin7SetModeE9TGPIOModei+0x1a8>
    91a0:	e0831293 	umull	r1, r3, r3, r2
    91a4:	e1a031a3 	lsr	r3, r3, #3
    91a8:	e2837302 	add	r7, r3, #134217728	; 0x8000000
    91ac:	e2877702 	add	r7, r7, #524288	; 0x80000
    91b0:	e1a07107 	lsl	r7, r7, #2
    91b4:	e0833103 	add	r3, r3, r3, lsl #2
    91b8:	e0425083 	sub	r5, r2, r3, lsl #1
    91bc:	e0855085 	add	r5, r5, r5, lsl #1
    91c0:	e59f30cc 	ldr	r3, [pc, #204]	; 9294 <_ZN8CGPIOPin7SetModeE9TGPIOModei+0x1ac>
    91c4:	e5933000 	ldr	r3, [r3]
    91c8:	e3530000 	cmp	r3, #0
    91cc:	0a000000 	beq	91d4 <_ZN8CGPIOPin7SetModeE9TGPIOModei+0xec>
    91d0:	eb0001a9 	bl	987c <EnterCritical>
    91d4:	e1a00007 	mov	r0, r7
    91d8:	eb0000aa 	bl	9488 <read32>
    91dc:	e3a03007 	mov	r3, #7
    91e0:	e1c03513 	bic	r3, r0, r3, lsl r5
    91e4:	e5d41008 	ldrb	r1, [r4, #8]
    91e8:	e3510001 	cmp	r1, #1
    91ec:	13a01000 	movne	r1, #0
    91f0:	03a01001 	moveq	r1, #1
    91f4:	e1a00007 	mov	r0, r7
    91f8:	e1831511 	orr	r1, r3, r1, lsl r5
    91fc:	eb0000a3 	bl	9490 <write32>
    9200:	e59f308c 	ldr	r3, [pc, #140]	; 9294 <_ZN8CGPIOPin7SetModeE9TGPIOModei+0x1ac>
    9204:	e5933000 	ldr	r3, [r3]
    9208:	e3530000 	cmp	r3, #0
    920c:	0a000000 	beq	9214 <_ZN8CGPIOPin7SetModeE9TGPIOModei+0x12c>
    9210:	eb0001a9 	bl	98bc <LeaveCritical>
    9214:	e3560000 	cmp	r6, #0
    9218:	0a000016 	beq	9278 <_ZN8CGPIOPin7SetModeE9TGPIOModei+0x190>
    921c:	e5d43008 	ldrb	r3, [r4, #8]
    9220:	e3530003 	cmp	r3, #3
    9224:	979ff103 	ldrls	pc, [pc, r3, lsl #2]
    9228:	ea000012 	b	9278 <_ZN8CGPIOPin7SetModeE9TGPIOModei+0x190>
    922c:	0000923c 	andeq	r9, r0, ip, lsr r2
    9230:	0000924c 	andeq	r9, r0, ip, asr #4
    9234:	0000925c 	andeq	r9, r0, ip, asr r2
    9238:	0000926c 	andeq	r9, r0, ip, ror #4
    923c:	e1a00004 	mov	r0, r4
    9240:	e3a01000 	mov	r1, #0
    9244:	ebffff38 	bl	8f2c <_ZN8CGPIOPin13SetPullUpModeEj>
    9248:	ea00000a 	b	9278 <_ZN8CGPIOPin7SetModeE9TGPIOModei+0x190>
    924c:	e1a00004 	mov	r0, r4
    9250:	e3a01000 	mov	r1, #0
    9254:	ebfffde0 	bl	89dc <_ZN8CGPIOPin5WriteEj>
    9258:	ea000006 	b	9278 <_ZN8CGPIOPin7SetModeE9TGPIOModei+0x190>
    925c:	e1a00004 	mov	r0, r4
    9260:	e3a01002 	mov	r1, #2
    9264:	ebffff30 	bl	8f2c <_ZN8CGPIOPin13SetPullUpModeEj>
    9268:	ea000002 	b	9278 <_ZN8CGPIOPin7SetModeE9TGPIOModei+0x190>
    926c:	e1a00004 	mov	r0, r4
    9270:	e3a01001 	mov	r1, #1
    9274:	ebffff2c 	bl	8f2c <_ZN8CGPIOPin13SetPullUpModeEj>
    9278:	e3a03000 	mov	r3, #0
    927c:	ee073fba 	mcr	15, 0, r3, cr7, cr10, {5}
    9280:	e8bd80f8 	pop	{r3, r4, r5, r6, r7, pc}
    9284:	0000e9f4 	strdeq	lr, [r0], -r4
    9288:	0000e874 	andeq	lr, r0, r4, ror r8
    928c:	0000e8a0 	andeq	lr, r0, r0, lsr #17
    9290:	cccccccd 	stclgt	12, cr12, [ip], {205}	; 0xcd
    9294:	000100ec 	andeq	r0, r1, ip, ror #1

00009298 <_ZN8CGPIOPinC1Ej9TGPIOModeP12CGPIOManager>:
    9298:	e92d4038 	push	{r3, r4, r5, lr}
    929c:	e1a04000 	mov	r4, r0
    92a0:	e1a05002 	mov	r5, r2
    92a4:	e59f2050 	ldr	r2, [pc, #80]	; 92fc <_ZN8CGPIOPinC1Ej9TGPIOModeP12CGPIOManager+0x64>
    92a8:	e5802000 	str	r2, [r0]
    92ac:	e5801004 	str	r1, [r0, #4]
    92b0:	e3a0200a 	mov	r2, #10
    92b4:	e5c02008 	strb	r2, [r0, #8]
    92b8:	e5803010 	str	r3, [r0, #16]
    92bc:	e3a03000 	mov	r3, #0
    92c0:	e5803014 	str	r3, [r0, #20]
    92c4:	e3a03006 	mov	r3, #6
    92c8:	e5c0301c 	strb	r3, [r0, #28]
    92cc:	e3510035 	cmp	r1, #53	; 0x35
    92d0:	9a000003 	bls	92e4 <_ZN8CGPIOPinC1Ej9TGPIOModeP12CGPIOManager+0x4c>
    92d4:	e59f0024 	ldr	r0, [pc, #36]	; 9300 <_ZN8CGPIOPinC1Ej9TGPIOModeP12CGPIOManager+0x68>
    92d8:	e59f1024 	ldr	r1, [pc, #36]	; 9304 <_ZN8CGPIOPinC1Ej9TGPIOModeP12CGPIOManager+0x6c>
    92dc:	e3a02025 	mov	r2, #37	; 0x25
    92e0:	eb000a2e 	bl	bba0 <assertion_failed>
    92e4:	e1a00004 	mov	r0, r4
    92e8:	e1a01005 	mov	r1, r5
    92ec:	e3a02001 	mov	r2, #1
    92f0:	ebffff7c 	bl	90e8 <_ZN8CGPIOPin7SetModeE9TGPIOModei>
    92f4:	e1a00004 	mov	r0, r4
    92f8:	e8bd8038 	pop	{r3, r4, r5, pc}
    92fc:	0000e830 	andeq	lr, r0, r0, lsr r8
    9300:	0000e8a0 	andeq	lr, r0, r0, lsr #17
    9304:	0000e874 	andeq	lr, r0, r4, ror r8

00009308 <_ZN8CGPIOPin16InterruptHandlerEv>:
    9308:	e92d4010 	push	{r4, lr}
    930c:	e1a04000 	mov	r4, r0
    9310:	e5d03008 	ldrb	r3, [r0, #8]
    9314:	e2432002 	sub	r2, r3, #2
    9318:	e6ef2072 	uxtb	r2, r2
    931c:	e3530000 	cmp	r3, #0
    9320:	13520001 	cmpne	r2, #1
    9324:	9a000003 	bls	9338 <_ZN8CGPIOPin16InterruptHandlerEv+0x30>
    9328:	e59f0050 	ldr	r0, [pc, #80]	; 9380 <_ZN8CGPIOPin16InterruptHandlerEv+0x78>
    932c:	e59f1050 	ldr	r1, [pc, #80]	; 9384 <_ZN8CGPIOPin16InterruptHandlerEv+0x7c>
    9330:	e59f2050 	ldr	r2, [pc, #80]	; 9388 <_ZN8CGPIOPin16InterruptHandlerEv+0x80>
    9334:	eb000a19 	bl	bba0 <assertion_failed>
    9338:	e5d4301c 	ldrb	r3, [r4, #28]
    933c:	e3530005 	cmp	r3, #5
    9340:	9a000003 	bls	9354 <_ZN8CGPIOPin16InterruptHandlerEv+0x4c>
    9344:	e59f0040 	ldr	r0, [pc, #64]	; 938c <_ZN8CGPIOPin16InterruptHandlerEv+0x84>
    9348:	e59f1034 	ldr	r1, [pc, #52]	; 9384 <_ZN8CGPIOPin16InterruptHandlerEv+0x7c>
    934c:	e59f203c 	ldr	r2, [pc, #60]	; 9390 <_ZN8CGPIOPin16InterruptHandlerEv+0x88>
    9350:	eb000a12 	bl	bba0 <assertion_failed>
    9354:	e5943014 	ldr	r3, [r4, #20]
    9358:	e3530000 	cmp	r3, #0
    935c:	1a000003 	bne	9370 <_ZN8CGPIOPin16InterruptHandlerEv+0x68>
    9360:	e59f002c 	ldr	r0, [pc, #44]	; 9394 <_ZN8CGPIOPin16InterruptHandlerEv+0x8c>
    9364:	e59f1018 	ldr	r1, [pc, #24]	; 9384 <_ZN8CGPIOPin16InterruptHandlerEv+0x7c>
    9368:	e3a02f47 	mov	r2, #284	; 0x11c
    936c:	eb000a0b 	bl	bba0 <assertion_failed>
    9370:	e5943014 	ldr	r3, [r4, #20]
    9374:	e5940018 	ldr	r0, [r4, #24]
    9378:	e12fff33 	blx	r3
    937c:	e8bd8010 	pop	{r4, pc}
    9380:	0000e8b4 			; <UNDEFINED> instruction: 0x0000e8b4
    9384:	0000e874 	andeq	lr, r0, r4, ror r8
    9388:	00000119 	andeq	r0, r0, r9, lsl r1
    938c:	0000e9b4 			; <UNDEFINED> instruction: 0x0000e9b4
    9390:	0000011a 	andeq	r0, r0, sl, lsl r1
    9394:	0000e980 	andeq	lr, r0, r0, lsl #19

00009398 <_ZN8CGPIOPin20DisableAllInterruptsEj>:
    9398:	e92d4070 	push	{r4, r5, r6, lr}
    939c:	e1a06000 	mov	r6, r0
    93a0:	e3500035 	cmp	r0, #53	; 0x35
    93a4:	9a000003 	bls	93b8 <_ZN8CGPIOPin20DisableAllInterruptsEj+0x20>
    93a8:	e59f0080 	ldr	r0, [pc, #128]	; 9430 <_ZN8CGPIOPin20DisableAllInterruptsEj+0x98>
    93ac:	e59f1080 	ldr	r1, [pc, #128]	; 9434 <_ZN8CGPIOPin20DisableAllInterruptsEj+0x9c>
    93b0:	e59f2080 	ldr	r2, [pc, #128]	; 9438 <_ZN8CGPIOPin20DisableAllInterruptsEj+0xa0>
    93b4:	eb0009f9 	bl	bba0 <assertion_failed>
    93b8:	e59f407c 	ldr	r4, [pc, #124]	; 943c <_ZN8CGPIOPin20DisableAllInterruptsEj+0xa4>
    93bc:	e08442a6 	add	r4, r4, r6, lsr #5
    93c0:	e1a04104 	lsl	r4, r4, #2
    93c4:	e206601f 	and	r6, r6, #31
    93c8:	e3a03001 	mov	r3, #1
    93cc:	e1a06613 	lsl	r6, r3, r6
    93d0:	e59f3068 	ldr	r3, [pc, #104]	; 9440 <_ZN8CGPIOPin20DisableAllInterruptsEj+0xa8>
    93d4:	e5933000 	ldr	r3, [r3]
    93d8:	e3530000 	cmp	r3, #0
    93dc:	0a000000 	beq	93e4 <_ZN8CGPIOPin20DisableAllInterruptsEj+0x4c>
    93e0:	eb000125 	bl	987c <EnterCritical>
    93e4:	e59f3058 	ldr	r3, [pc, #88]	; 9444 <_ZN8CGPIOPin20DisableAllInterruptsEj+0xac>
    93e8:	e1540003 	cmp	r4, r3
    93ec:	8a000009 	bhi	9418 <_ZN8CGPIOPin20DisableAllInterruptsEj+0x80>
    93f0:	e1e06006 	mvn	r6, r6
    93f4:	e1a05003 	mov	r5, r3
    93f8:	e1a00004 	mov	r0, r4
    93fc:	eb000021 	bl	9488 <read32>
    9400:	e0001006 	and	r1, r0, r6
    9404:	e1a00004 	mov	r0, r4
    9408:	eb000020 	bl	9490 <write32>
    940c:	e284400c 	add	r4, r4, #12
    9410:	e1540005 	cmp	r4, r5
    9414:	9afffff7 	bls	93f8 <_ZN8CGPIOPin20DisableAllInterruptsEj+0x60>
    9418:	e59f3020 	ldr	r3, [pc, #32]	; 9440 <_ZN8CGPIOPin20DisableAllInterruptsEj+0xa8>
    941c:	e5933000 	ldr	r3, [r3]
    9420:	e3530000 	cmp	r3, #0
    9424:	08bd8070 	popeq	{r4, r5, r6, pc}
    9428:	eb000123 	bl	98bc <LeaveCritical>
    942c:	e8bd8070 	pop	{r4, r5, r6, pc}
    9430:	0000ea0c 	andeq	lr, r0, ip, lsl #20
    9434:	0000e874 	andeq	lr, r0, r4, ror r8
    9438:	00000122 	andeq	r0, r0, r2, lsr #2
    943c:	08080013 	stmdaeq	r8, {r0, r1, r4}
    9440:	000100ec 	andeq	r0, r1, ip, ror #1
    9444:	2020008b 	eorcs	r0, r0, fp, lsl #1

00009448 <_GLOBAL__sub_I__ZN8CGPIOPin10s_SpinLockE>:
    9448:	e3a02001 	mov	r2, #1
    944c:	e59f3004 	ldr	r3, [pc, #4]	; 9458 <_GLOBAL__sub_I__ZN8CGPIOPin10s_SpinLockE+0x10>
    9450:	e5832000 	str	r2, [r3]
    9454:	e12fff1e 	bx	lr
    9458:	000100ec 	andeq	r0, r1, ip, ror #1

0000945c <__aeabi_uidiv>:
    945c:	e92d4008 	push	{r3, lr}
    9460:	e3a02000 	mov	r2, #0
    9464:	eb0013d1 	bl	e3b0 <Divide>
    9468:	e8bd8008 	pop	{r3, pc}

0000946c <__aeabi_uidivmod>:
    946c:	e52de004 	push	{lr}		; (str lr, [sp, #-4]!)
    9470:	e24dd00c 	sub	sp, sp, #12
    9474:	e28d2004 	add	r2, sp, #4
    9478:	eb0013cc 	bl	e3b0 <Divide>
    947c:	e59d1004 	ldr	r1, [sp, #4]
    9480:	e28dd00c 	add	sp, sp, #12
    9484:	e49df004 	pop	{pc}		; (ldr pc, [sp], #4)

00009488 <read32>:
    9488:	e5900000 	ldr	r0, [r0]
    948c:	e12fff1e 	bx	lr

00009490 <write32>:
    9490:	e5801000 	str	r1, [r0]
    9494:	e12fff1e 	bx	lr

00009498 <_ZN13CMemorySystemD1Ev>:
    9498:	e92d4038 	push	{r3, r4, r5, lr}
    949c:	e1a04000 	mov	r4, r0
    94a0:	e5903000 	ldr	r3, [r0]
    94a4:	e3530000 	cmp	r3, #0
    94a8:	0a000005 	beq	94c4 <_ZN13CMemorySystemD1Ev+0x2c>
    94ac:	ee112f10 	mrc	15, 0, r2, cr1, cr0, {0}
    94b0:	e59f305c 	ldr	r3, [pc, #92]	; 9514 <_ZN13CMemorySystemD1Ev+0x7c>
    94b4:	e0023003 	and	r3, r2, r3
    94b8:	ee013f10 	mcr	15, 0, r3, cr1, cr0, {0}
    94bc:	e3a03000 	mov	r3, #0
    94c0:	ee083f17 	mcr	15, 0, r3, cr8, cr7, {0}
    94c4:	e594500c 	ldr	r5, [r4, #12]
    94c8:	e3550000 	cmp	r5, #0
    94cc:	0a000003 	beq	94e0 <_ZN13CMemorySystemD1Ev+0x48>
    94d0:	e1a00005 	mov	r0, r5
    94d4:	eb0005b9 	bl	abc0 <_ZN10CPageTableD1Ev>
    94d8:	e1a00005 	mov	r0, r5
    94dc:	eb0000dc 	bl	9854 <_ZdlPv>
    94e0:	e3a03000 	mov	r3, #0
    94e4:	e584300c 	str	r3, [r4, #12]
    94e8:	e5945008 	ldr	r5, [r4, #8]
    94ec:	e1550003 	cmp	r5, r3
    94f0:	0a000003 	beq	9504 <_ZN13CMemorySystemD1Ev+0x6c>
    94f4:	e1a00005 	mov	r0, r5
    94f8:	eb0005b0 	bl	abc0 <_ZN10CPageTableD1Ev>
    94fc:	e1a00005 	mov	r0, r5
    9500:	eb0000d3 	bl	9854 <_ZdlPv>
    9504:	e3a03000 	mov	r3, #0
    9508:	e5843008 	str	r3, [r4, #8]
    950c:	e1a00004 	mov	r0, r4
    9510:	e8bd8038 	pop	{r3, r4, r5, pc}
    9514:	ff7fe7fa 			; <UNDEFINED> instruction: 0xff7fe7fa

00009518 <_ZNK13CMemorySystem10GetMemSizeEv>:
    9518:	e5900004 	ldr	r0, [r0, #4]
    951c:	e12fff1e 	bx	lr

00009520 <_ZN13CMemorySystem13SetPageTable0EP10CPageTablej>:
    9520:	e92d4070 	push	{r4, r5, r6, lr}
    9524:	e1a05000 	mov	r5, r0
    9528:	e1a04001 	mov	r4, r1
    952c:	e1a06002 	mov	r6, r2
    9530:	e5903000 	ldr	r3, [r0]
    9534:	e3530000 	cmp	r3, #0
    9538:	1a000003 	bne	954c <_ZN13CMemorySystem13SetPageTable0EP10CPageTablej+0x2c>
    953c:	e59f003c 	ldr	r0, [pc, #60]	; 9580 <_ZN13CMemorySystem13SetPageTable0EP10CPageTablej+0x60>
    9540:	e59f103c 	ldr	r1, [pc, #60]	; 9584 <_ZN13CMemorySystem13SetPageTable0EP10CPageTablej+0x64>
    9544:	e3a0207a 	mov	r2, #122	; 0x7a
    9548:	eb000994 	bl	bba0 <assertion_failed>
    954c:	e3540000 	cmp	r4, #0
    9550:	05954008 	ldreq	r4, [r5, #8]
    9554:	ee1d5f30 	mrc	15, 0, r5, cr13, cr0, {1}
    9558:	e1a00004 	mov	r0, r4
    955c:	eb0005a2 	bl	abec <_ZNK10CPageTable14GetBaseAddressEv>
    9560:	ee020f10 	mcr	15, 0, r0, cr2, cr0, {0}
    9564:	e3a03000 	mov	r3, #0
    9568:	ee073f9a 	mcr	15, 0, r3, cr7, cr10, {4}
    956c:	ee0d6f30 	mcr	15, 0, r6, cr13, cr0, {1}
    9570:	ee073f95 	mcr	15, 0, r3, cr7, cr5, {4}
    9574:	e6ef5075 	uxtb	r5, r5
    9578:	ee085f57 	mcr	15, 0, r5, cr8, cr7, {2}
    957c:	e8bd8070 	pop	{r4, r5, r6, pc}
    9580:	0000ea20 	andeq	lr, r0, r0, lsr #20
    9584:	0000ea30 	andeq	lr, r0, r0, lsr sl

00009588 <_ZN13CMemorySystem13SetPageTable0Ejj>:
    9588:	e92d4038 	push	{r3, r4, r5, lr}
    958c:	e1a05001 	mov	r5, r1
    9590:	e1a04002 	mov	r4, r2
    9594:	e5903000 	ldr	r3, [r0]
    9598:	e3530000 	cmp	r3, #0
    959c:	1a000003 	bne	95b0 <_ZN13CMemorySystem13SetPageTable0Ejj+0x28>
    95a0:	e59f002c 	ldr	r0, [pc, #44]	; 95d4 <_ZN13CMemorySystem13SetPageTable0Ejj+0x4c>
    95a4:	e59f102c 	ldr	r1, [pc, #44]	; 95d8 <_ZN13CMemorySystem13SetPageTable0Ejj+0x50>
    95a8:	e3a02090 	mov	r2, #144	; 0x90
    95ac:	eb00097b 	bl	bba0 <assertion_failed>
    95b0:	ee1d3f30 	mrc	15, 0, r3, cr13, cr0, {1}
    95b4:	ee025f10 	mcr	15, 0, r5, cr2, cr0, {0}
    95b8:	e3a02000 	mov	r2, #0
    95bc:	ee072f9a 	mcr	15, 0, r2, cr7, cr10, {4}
    95c0:	ee0d4f30 	mcr	15, 0, r4, cr13, cr0, {1}
    95c4:	ee072f95 	mcr	15, 0, r2, cr7, cr5, {4}
    95c8:	e6ef3073 	uxtb	r3, r3
    95cc:	ee083f57 	mcr	15, 0, r3, cr8, cr7, {2}
    95d0:	e8bd8038 	pop	{r3, r4, r5, pc}
    95d4:	0000ea20 	andeq	lr, r0, r0, lsr #20
    95d8:	0000ea30 	andeq	lr, r0, r0, lsr sl

000095dc <_ZNK13CMemorySystem8GetTTBR0Ev>:
    95dc:	e92d4008 	push	{r3, lr}
    95e0:	e5903000 	ldr	r3, [r0]
    95e4:	e3530000 	cmp	r3, #0
    95e8:	1a000003 	bne	95fc <_ZNK13CMemorySystem8GetTTBR0Ev+0x20>
    95ec:	e59f0010 	ldr	r0, [pc, #16]	; 9604 <_ZNK13CMemorySystem8GetTTBR0Ev+0x28>
    95f0:	e59f1010 	ldr	r1, [pc, #16]	; 9608 <_ZNK13CMemorySystem8GetTTBR0Ev+0x2c>
    95f4:	e3a020a1 	mov	r2, #161	; 0xa1
    95f8:	eb000968 	bl	bba0 <assertion_failed>
    95fc:	ee120f10 	mrc	15, 0, r0, cr2, cr0, {0}
    9600:	e8bd8008 	pop	{r3, pc}
    9604:	0000ea20 	andeq	lr, r0, r0, lsr #20
    9608:	0000ea30 	andeq	lr, r0, r0, lsr sl

0000960c <_ZNK13CMemorySystem12GetContextIDEv>:
    960c:	e92d4008 	push	{r3, lr}
    9610:	e5903000 	ldr	r3, [r0]
    9614:	e3530000 	cmp	r3, #0
    9618:	1a000003 	bne	962c <_ZNK13CMemorySystem12GetContextIDEv+0x20>
    961c:	e59f0010 	ldr	r0, [pc, #16]	; 9634 <_ZNK13CMemorySystem12GetContextIDEv+0x28>
    9620:	e59f1010 	ldr	r1, [pc, #16]	; 9638 <_ZNK13CMemorySystem12GetContextIDEv+0x2c>
    9624:	e3a020ab 	mov	r2, #171	; 0xab
    9628:	eb00095c 	bl	bba0 <assertion_failed>
    962c:	ee1d0f30 	mrc	15, 0, r0, cr13, cr0, {1}
    9630:	e8bd8008 	pop	{r3, pc}
    9634:	0000ea20 	andeq	lr, r0, r0, lsr #20
    9638:	0000ea30 	andeq	lr, r0, r0, lsr sl

0000963c <_ZN13CMemorySystem9EnableMMUEv>:
    963c:	e92d4010 	push	{r4, lr}
    9640:	e1a04000 	mov	r4, r0
    9644:	e5903000 	ldr	r3, [r0]
    9648:	e3530000 	cmp	r3, #0
    964c:	1a000003 	bne	9660 <_ZN13CMemorySystem9EnableMMUEv+0x24>
    9650:	e59f00b4 	ldr	r0, [pc, #180]	; 970c <_ZN13CMemorySystem9EnableMMUEv+0xd0>
    9654:	e59f10b4 	ldr	r1, [pc, #180]	; 9710 <_ZN13CMemorySystem9EnableMMUEv+0xd4>
    9658:	e3a020b7 	mov	r2, #183	; 0xb7
    965c:	eb00094f 	bl	bba0 <assertion_failed>
    9660:	ee113f30 	mrc	15, 0, r3, cr1, cr0, {1}
    9664:	e3833040 	orr	r3, r3, #64	; 0x40
    9668:	ee013f30 	mcr	15, 0, r3, cr1, cr0, {1}
    966c:	ee103f70 	mrc	15, 0, r3, cr0, cr0, {3}
    9670:	e3130001 	tst	r3, #1
    9674:	0a000003 	beq	9688 <_ZN13CMemorySystem9EnableMMUEv+0x4c>
    9678:	e59f0094 	ldr	r0, [pc, #148]	; 9714 <_ZN13CMemorySystem9EnableMMUEv+0xd8>
    967c:	e59f108c 	ldr	r1, [pc, #140]	; 9710 <_ZN13CMemorySystem9EnableMMUEv+0xd4>
    9680:	e3a020c4 	mov	r2, #196	; 0xc4
    9684:	eb000945 	bl	bba0 <assertion_failed>
    9688:	e3a03003 	mov	r3, #3
    968c:	ee023f50 	mcr	15, 0, r3, cr2, cr0, {2}
    9690:	e5943008 	ldr	r3, [r4, #8]
    9694:	e3530000 	cmp	r3, #0
    9698:	1a000003 	bne	96ac <_ZN13CMemorySystem9EnableMMUEv+0x70>
    969c:	e59f0074 	ldr	r0, [pc, #116]	; 9718 <_ZN13CMemorySystem9EnableMMUEv+0xdc>
    96a0:	e59f1068 	ldr	r1, [pc, #104]	; 9710 <_ZN13CMemorySystem9EnableMMUEv+0xd4>
    96a4:	e3a020ca 	mov	r2, #202	; 0xca
    96a8:	eb00093c 	bl	bba0 <assertion_failed>
    96ac:	e5940008 	ldr	r0, [r4, #8]
    96b0:	eb00054d 	bl	abec <_ZNK10CPageTable14GetBaseAddressEv>
    96b4:	ee020f10 	mcr	15, 0, r0, cr2, cr0, {0}
    96b8:	e594300c 	ldr	r3, [r4, #12]
    96bc:	e3530000 	cmp	r3, #0
    96c0:	1a000003 	bne	96d4 <_ZN13CMemorySystem9EnableMMUEv+0x98>
    96c4:	e59f0050 	ldr	r0, [pc, #80]	; 971c <_ZN13CMemorySystem9EnableMMUEv+0xe0>
    96c8:	e59f1040 	ldr	r1, [pc, #64]	; 9710 <_ZN13CMemorySystem9EnableMMUEv+0xd4>
    96cc:	e3a020ce 	mov	r2, #206	; 0xce
    96d0:	eb000932 	bl	bba0 <assertion_failed>
    96d4:	e594000c 	ldr	r0, [r4, #12]
    96d8:	eb000543 	bl	abec <_ZNK10CPageTable14GetBaseAddressEv>
    96dc:	ee020f30 	mcr	15, 0, r0, cr2, cr0, {1}
    96e0:	e3a03005 	mov	r3, #5
    96e4:	ee033f10 	mcr	15, 0, r3, cr3, cr0, {0}
    96e8:	e3a03000 	mov	r3, #0
    96ec:	ee073f16 	mcr	15, 0, r3, cr7, cr6, {0}
    96f0:	ee073f95 	mcr	15, 0, r3, cr7, cr5, {4}
    96f4:	ee112f10 	mrc	15, 0, r2, cr1, cr0, {0}
    96f8:	e3c22501 	bic	r2, r2, #4194304	; 0x400000
    96fc:	e59f301c 	ldr	r3, [pc, #28]	; 9720 <_ZN13CMemorySystem9EnableMMUEv+0xe4>
    9700:	e1823003 	orr	r3, r2, r3
    9704:	ee013f10 	mcr	15, 0, r3, cr1, cr0, {0}
    9708:	e8bd8010 	pop	{r4, pc}
    970c:	0000ea20 	andeq	lr, r0, r0, lsr #20
    9710:	0000ea30 	andeq	lr, r0, r0, lsr sl
    9714:	0000ea3c 	andeq	lr, r0, ip, lsr sl
    9718:	0000ea68 	andeq	lr, r0, r8, ror #20
    971c:	0000ea84 	andeq	lr, r0, r4, lsl #21
    9720:	00801807 	addeq	r1, r0, r7, lsl #16

00009724 <_ZN13CMemorySystemC1Ei>:
    9724:	e92d4030 	push	{r4, r5, lr}
    9728:	e24dd02c 	sub	sp, sp, #44	; 0x2c
    972c:	e1a04000 	mov	r4, r0
    9730:	e5801000 	str	r1, [r0]
    9734:	e3a05000 	mov	r5, #0
    9738:	e5805004 	str	r5, [r0, #4]
    973c:	e5805008 	str	r5, [r0, #8]
    9740:	e580500c 	str	r5, [r0, #12]
    9744:	e28d000c 	add	r0, sp, #12
    9748:	ebfffc35 	bl	8824 <_ZN16CBcmPropertyTagsC1Ev>
    974c:	e58d5000 	str	r5, [sp]
    9750:	e28d000c 	add	r0, sp, #12
    9754:	e59f10cc 	ldr	r1, [pc, #204]	; 9828 <_ZN13CMemorySystemC1Ei+0x104>
    9758:	e28d2014 	add	r2, sp, #20
    975c:	e3a03014 	mov	r3, #20
    9760:	ebfffc3a 	bl	8850 <_ZN16CBcmPropertyTags6GetTagEjPvjj>
    9764:	e1500005 	cmp	r0, r5
    9768:	01a03005 	moveq	r3, r5
    976c:	058d3020 	streq	r3, [sp, #32]
    9770:	03a03303 	moveq	r3, #201326592	; 0xc000000
    9774:	058d3024 	streq	r3, [sp, #36]	; 0x24
    9778:	e59d3020 	ldr	r3, [sp, #32]
    977c:	e3530000 	cmp	r3, #0
    9780:	0a000003 	beq	9794 <_ZN13CMemorySystemC1Ei+0x70>
    9784:	e59f00a0 	ldr	r0, [pc, #160]	; 982c <_ZN13CMemorySystemC1Ei+0x108>
    9788:	e59f10a0 	ldr	r1, [pc, #160]	; 9830 <_ZN13CMemorySystemC1Ei+0x10c>
    978c:	e3a0203c 	mov	r2, #60	; 0x3c
    9790:	eb000902 	bl	bba0 <assertion_failed>
    9794:	e59d1024 	ldr	r1, [sp, #36]	; 0x24
    9798:	e5841004 	str	r1, [r4, #4]
    979c:	e59d0020 	ldr	r0, [sp, #32]
    97a0:	eb00116e 	bl	dd60 <mem_init>
    97a4:	e5943000 	ldr	r3, [r4]
    97a8:	e3530000 	cmp	r3, #0
    97ac:	0a000018 	beq	9814 <_ZN13CMemorySystemC1Ei+0xf0>
    97b0:	e3a00008 	mov	r0, #8
    97b4:	eb000020 	bl	983c <_Znwj>
    97b8:	e1a05000 	mov	r5, r0
    97bc:	e5941004 	ldr	r1, [r4, #4]
    97c0:	eb0004bf 	bl	aac4 <_ZN10CPageTableC1Ej>
    97c4:	e5845008 	str	r5, [r4, #8]
    97c8:	e3550000 	cmp	r5, #0
    97cc:	1a000003 	bne	97e0 <_ZN13CMemorySystemC1Ei+0xbc>
    97d0:	e59f005c 	ldr	r0, [pc, #92]	; 9834 <_ZN13CMemorySystemC1Ei+0x110>
    97d4:	e59f1054 	ldr	r1, [pc, #84]	; 9830 <_ZN13CMemorySystemC1Ei+0x10c>
    97d8:	e3a02044 	mov	r2, #68	; 0x44
    97dc:	eb0008ef 	bl	bba0 <assertion_failed>
    97e0:	e3a00008 	mov	r0, #8
    97e4:	eb000014 	bl	983c <_Znwj>
    97e8:	e1a05000 	mov	r5, r0
    97ec:	eb000493 	bl	aa40 <_ZN10CPageTableC1Ev>
    97f0:	e584500c 	str	r5, [r4, #12]
    97f4:	e3550000 	cmp	r5, #0
    97f8:	1a000003 	bne	980c <_ZN13CMemorySystemC1Ei+0xe8>
    97fc:	e59f0034 	ldr	r0, [pc, #52]	; 9838 <_ZN13CMemorySystemC1Ei+0x114>
    9800:	e59f1028 	ldr	r1, [pc, #40]	; 9830 <_ZN13CMemorySystemC1Ei+0x10c>
    9804:	e3a02047 	mov	r2, #71	; 0x47
    9808:	eb0008e4 	bl	bba0 <assertion_failed>
    980c:	e1a00004 	mov	r0, r4
    9810:	ebffff89 	bl	963c <_ZN13CMemorySystem9EnableMMUEv>
    9814:	e28d000c 	add	r0, sp, #12
    9818:	ebfffc07 	bl	883c <_ZN16CBcmPropertyTagsD1Ev>
    981c:	e1a00004 	mov	r0, r4
    9820:	e28dd02c 	add	sp, sp, #44	; 0x2c
    9824:	e8bd8030 	pop	{r4, r5, pc}
    9828:	00010005 	andeq	r0, r1, r5
    982c:	0000ea98 	muleq	r0, r8, sl
    9830:	0000ea30 	andeq	lr, r0, r0, lsr sl
    9834:	0000ea68 	andeq	lr, r0, r8, ror #20
    9838:	0000ea84 	andeq	lr, r0, r4, lsl #21

0000983c <_Znwj>:
    983c:	e92d4008 	push	{r3, lr}
    9840:	eb001161 	bl	ddcc <malloc>
    9844:	e8bd8008 	pop	{r3, pc}

00009848 <_Znaj>:
    9848:	e92d4008 	push	{r3, lr}
    984c:	eb00115e 	bl	ddcc <malloc>
    9850:	e8bd8008 	pop	{r3, pc}

00009854 <_ZdlPv>:
    9854:	e92d4008 	push	{r3, lr}
    9858:	e3500000 	cmp	r0, #0
    985c:	08bd8008 	popeq	{r3, pc}
    9860:	eb0011d2 	bl	dfb0 <free>
    9864:	e8bd8008 	pop	{r3, pc}

00009868 <_ZdaPv>:
    9868:	e92d4008 	push	{r3, lr}
    986c:	e3500000 	cmp	r0, #0
    9870:	08bd8008 	popeq	{r3, pc}
    9874:	eb0011cd 	bl	dfb0 <free>
    9878:	e8bd8008 	pop	{r3, pc}

0000987c <EnterCritical>:
    987c:	e10f0000 	mrs	r0, CPSR
    9880:	f10c0080 	cpsid	i
    9884:	e59f202c 	ldr	r2, [pc, #44]	; 98b8 <EnterCritical+0x3c>
    9888:	e5923000 	ldr	r3, [r2]
    988c:	e2831001 	add	r1, r3, #1
    9890:	e5821000 	str	r1, [r2]
    9894:	e3530000 	cmp	r3, #0
    9898:	01a003a0 	lsreq	r0, r0, #7
    989c:	02200001 	eoreq	r0, r0, #1
    98a0:	02000001 	andeq	r0, r0, #1
    98a4:	01a03002 	moveq	r3, r2
    98a8:	05830004 	streq	r0, [r3, #4]
    98ac:	e3a03000 	mov	r3, #0
    98b0:	ee073fba 	mcr	15, 0, r3, cr7, cr10, {5}
    98b4:	e12fff1e 	bx	lr
    98b8:	000100f0 	strdeq	r0, [r1], -r0	; <UNPREDICTABLE>

000098bc <LeaveCritical>:
    98bc:	e92d4008 	push	{r3, lr}
    98c0:	e3a03000 	mov	r3, #0
    98c4:	ee073fba 	mcr	15, 0, r3, cr7, cr10, {5}
    98c8:	e59f3044 	ldr	r3, [pc, #68]	; 9914 <LeaveCritical+0x58>
    98cc:	e5933000 	ldr	r3, [r3]
    98d0:	e3530000 	cmp	r3, #0
    98d4:	1a000003 	bne	98e8 <LeaveCritical+0x2c>
    98d8:	e59f0038 	ldr	r0, [pc, #56]	; 9918 <LeaveCritical+0x5c>
    98dc:	e59f1038 	ldr	r1, [pc, #56]	; 991c <LeaveCritical+0x60>
    98e0:	e3a0205b 	mov	r2, #91	; 0x5b
    98e4:	eb0008ad 	bl	bba0 <assertion_failed>
    98e8:	e59f2024 	ldr	r2, [pc, #36]	; 9914 <LeaveCritical+0x58>
    98ec:	e5923000 	ldr	r3, [r2]
    98f0:	e2433001 	sub	r3, r3, #1
    98f4:	e5823000 	str	r3, [r2]
    98f8:	e3530000 	cmp	r3, #0
    98fc:	18bd8008 	popne	{r3, pc}
    9900:	e5923004 	ldr	r3, [r2, #4]
    9904:	e3530000 	cmp	r3, #0
    9908:	08bd8008 	popeq	{r3, pc}
    990c:	f1080080 	cpsie	i
    9910:	e8bd8008 	pop	{r3, pc}
    9914:	000100f0 	strdeq	r0, [r1], -r0	; <UNPREDICTABLE>
    9918:	0000eab4 			; <UNDEFINED> instruction: 0x0000eab4
    991c:	0000eacc 	andeq	lr, r0, ip, asr #21

00009920 <__aeabi_atexit>:
    9920:	e12fff1e 	bx	lr

00009924 <halt>:
    9924:	f10c0080 	cpsid	i
    9928:	eafffffe 	b	9928 <halt+0x4>

0000992c <reboot>:
    992c:	e92d4008 	push	{r3, lr}
    9930:	e3a03000 	mov	r3, #0
    9934:	ee073fba 	mcr	15, 0, r3, cr7, cr10, {5}
    9938:	e59f0014 	ldr	r0, [pc, #20]	; 9954 <reboot+0x28>
    993c:	e59f1014 	ldr	r1, [pc, #20]	; 9958 <reboot+0x2c>
    9940:	ebfffed2 	bl	9490 <write32>
    9944:	e59f0010 	ldr	r0, [pc, #16]	; 995c <reboot+0x30>
    9948:	e59f1010 	ldr	r1, [pc, #16]	; 9960 <reboot+0x34>
    994c:	ebfffecf 	bl	9490 <write32>
    9950:	eafffffe 	b	9950 <reboot+0x24>
    9954:	20100024 	andscs	r0, r0, r4, lsr #32
    9958:	5a000001 	bpl	9964 <sysinit>
    995c:	2010001c 	andscs	r0, r0, ip, lsl r0
    9960:	5a000020 	bpl	99e8 <sysinit+0x84>

00009964 <sysinit>:
    9964:	e92d4070 	push	{r4, r5, r6, lr}
    9968:	e59f3098 	ldr	r3, [pc, #152]	; 9a08 <sysinit+0xa4>
    996c:	e59f2098 	ldr	r2, [pc, #152]	; 9a0c <sysinit+0xa8>
    9970:	e1520003 	cmp	r2, r3
    9974:	2a000005 	bcs	9990 <sysinit+0x2c>
    9978:	e2423001 	sub	r3, r2, #1
    997c:	e59f108c 	ldr	r1, [pc, #140]	; 9a10 <sysinit+0xac>
    9980:	e3a02000 	mov	r2, #0
    9984:	e5e32001 	strb	r2, [r3, #1]!
    9988:	e1530001 	cmp	r3, r1
    998c:	1afffffc 	bne	9984 <sysinit+0x20>
    9990:	ee113f50 	mrc	15, 0, r3, cr1, cr0, {2}
    9994:	e383360f 	orr	r3, r3, #15728640	; 0xf00000
    9998:	ee013f50 	mcr	15, 0, r3, cr1, cr0, {2}
    999c:	e3a03000 	mov	r3, #0
    99a0:	ee073f95 	mcr	15, 0, r3, cr7, cr5, {4}
    99a4:	e3a03101 	mov	r3, #1073741824	; 0x40000000
    99a8:	eee83a10 	vmsr	fpexc, r3
    99ac:	e3a03000 	mov	r3, #0
    99b0:	eee13a10 	vmsr	fpscr, r3
    99b4:	e59f3058 	ldr	r3, [pc, #88]	; 9a14 <sysinit+0xb0>
    99b8:	e59f2058 	ldr	r2, [pc, #88]	; 9a18 <sysinit+0xb4>
    99bc:	e1520003 	cmp	r2, r3
    99c0:	2a00000a 	bcs	99f0 <sysinit+0x8c>
    99c4:	e2425004 	sub	r5, r2, #4
    99c8:	e2436005 	sub	r6, r3, #5
    99cc:	e0656006 	rsb	r6, r5, r6
    99d0:	e1a06126 	lsr	r6, r6, #2
    99d4:	e2866001 	add	r6, r6, #1
    99d8:	e3a04000 	mov	r4, #0
    99dc:	e5b53004 	ldr	r3, [r5, #4]!
    99e0:	e12fff33 	blx	r3
    99e4:	e2844001 	add	r4, r4, #1
    99e8:	e1540006 	cmp	r4, r6
    99ec:	1afffffa 	bne	99dc <sysinit+0x78>
    99f0:	ebfff98b 	bl	8024 <main>
    99f4:	e3500001 	cmp	r0, #1
    99f8:	1a000000 	bne	9a00 <sysinit+0x9c>
    99fc:	ebffffca 	bl	992c <reboot>
    9a00:	f10c0080 	cpsid	i
    9a04:	eafffffe 	b	9a04 <sysinit+0xa0>
    9a08:	00010130 	andeq	r0, r1, r0, lsr r1
    9a0c:	000100e8 	andeq	r0, r1, r8, ror #1
    9a10:	0001012f 	andeq	r0, r1, pc, lsr #2
    9a14:	00010070 	andeq	r0, r1, r0, ror r0
    9a18:	00010068 	andeq	r0, r1, r8, rrx

00009a1c <_ZN6CTimerC1EP16CInterruptSystem>:
    9a1c:	e92d4010 	push	{r4, lr}
    9a20:	e1a04000 	mov	r4, r0
    9a24:	e5801000 	str	r1, [r0]
    9a28:	e3a03000 	mov	r3, #0
    9a2c:	e5803004 	str	r3, [r0, #4]
    9a30:	e5803008 	str	r3, [r0, #8]
    9a34:	e3a03001 	mov	r3, #1
    9a38:	e580300c 	str	r3, [r0, #12]
    9a3c:	e5803150 	str	r3, [r0, #336]	; 0x150
    9a40:	e59f3054 	ldr	r3, [pc, #84]	; 9a9c <_ZN6CTimerC1EP16CInterruptSystem+0x80>
    9a44:	e5803154 	str	r3, [r0, #340]	; 0x154
    9a48:	e59f3050 	ldr	r3, [pc, #80]	; 9aa0 <_ZN6CTimerC1EP16CInterruptSystem+0x84>
    9a4c:	e5803158 	str	r3, [r0, #344]	; 0x158
    9a50:	e59f304c 	ldr	r3, [pc, #76]	; 9aa4 <_ZN6CTimerC1EP16CInterruptSystem+0x88>
    9a54:	e5933000 	ldr	r3, [r3]
    9a58:	e3530000 	cmp	r3, #0
    9a5c:	0a000003 	beq	9a70 <_ZN6CTimerC1EP16CInterruptSystem+0x54>
    9a60:	e59f0040 	ldr	r0, [pc, #64]	; 9aa8 <_ZN6CTimerC1EP16CInterruptSystem+0x8c>
    9a64:	e59f1040 	ldr	r1, [pc, #64]	; 9aac <_ZN6CTimerC1EP16CInterruptSystem+0x90>
    9a68:	e3a0202b 	mov	r2, #43	; 0x2b
    9a6c:	eb00084b 	bl	bba0 <assertion_failed>
    9a70:	e59f302c 	ldr	r3, [pc, #44]	; 9aa4 <_ZN6CTimerC1EP16CInterruptSystem+0x88>
    9a74:	e5834000 	str	r4, [r3]
    9a78:	e3a02000 	mov	r2, #0
    9a7c:	e1a01002 	mov	r1, r2
    9a80:	e2823001 	add	r3, r2, #1
    9a84:	e7841203 	str	r1, [r4, r3, lsl #4]
    9a88:	e1a02003 	mov	r2, r3
    9a8c:	e3530014 	cmp	r3, #20
    9a90:	1afffffa 	bne	9a80 <_ZN6CTimerC1EP16CInterruptSystem+0x64>
    9a94:	e1a00004 	mov	r0, r4
    9a98:	e8bd8010 	pop	{r4, pc}
    9a9c:	00055730 	andeq	r5, r5, r0, lsr r7
    9aa0:	0000015e 	andeq	r0, r0, lr, asr r1
    9aa4:	000100fc 	strdeq	r0, [r1], -ip
    9aa8:	0000eb0c 	andeq	lr, r0, ip, lsl #22
    9aac:	0000eb1c 	andeq	lr, r0, ip, lsl fp

00009ab0 <_ZN6CTimerD1Ev>:
    9ab0:	e3a02000 	mov	r2, #0
    9ab4:	e59f3004 	ldr	r3, [pc, #4]	; 9ac0 <_ZN6CTimerD1Ev+0x10>
    9ab8:	e5832000 	str	r2, [r3]
    9abc:	e12fff1e 	bx	lr
    9ac0:	000100fc 	strdeq	r0, [r1], -ip

00009ac4 <_ZN6CTimer7SetTimeEj>:
    9ac4:	e92d4038 	push	{r3, r4, r5, lr}
    9ac8:	e1a04000 	mov	r4, r0
    9acc:	e1a05001 	mov	r5, r1
    9ad0:	e590300c 	ldr	r3, [r0, #12]
    9ad4:	e3530000 	cmp	r3, #0
    9ad8:	0a000000 	beq	9ae0 <_ZN6CTimer7SetTimeEj+0x1c>
    9adc:	ebffff66 	bl	987c <EnterCritical>
    9ae0:	e5845008 	str	r5, [r4, #8]
    9ae4:	e594300c 	ldr	r3, [r4, #12]
    9ae8:	e3530000 	cmp	r3, #0
    9aec:	08bd8038 	popeq	{r3, r4, r5, pc}
    9af0:	ebffff71 	bl	98bc <LeaveCritical>
    9af4:	e8bd8038 	pop	{r3, r4, r5, pc}

00009af8 <_ZNK6CTimer13GetClockTicksEv>:
    9af8:	e92d4008 	push	{r3, lr}
    9afc:	e3a03000 	mov	r3, #0
    9b00:	ee073fba 	mcr	15, 0, r3, cr7, cr10, {5}
    9b04:	e59f000c 	ldr	r0, [pc, #12]	; 9b18 <_ZNK6CTimer13GetClockTicksEv+0x20>
    9b08:	ebfffe5e 	bl	9488 <read32>
    9b0c:	e3a03000 	mov	r3, #0
    9b10:	ee073fba 	mcr	15, 0, r3, cr7, cr10, {5}
    9b14:	e8bd8008 	pop	{r3, pc}
    9b18:	20003004 	andcs	r3, r0, r4

00009b1c <_ZNK6CTimer8GetTicksEv>:
    9b1c:	e5900004 	ldr	r0, [r0, #4]
    9b20:	e12fff1e 	bx	lr

00009b24 <_ZNK6CTimer7GetTimeEv>:
    9b24:	e5900008 	ldr	r0, [r0, #8]
    9b28:	e12fff1e 	bx	lr

00009b2c <_ZN6CTimer16StartKernelTimerEjPFvjPvS0_ES0_S0_>:
    9b2c:	e92d41f0 	push	{r4, r5, r6, r7, r8, lr}
    9b30:	e1a05000 	mov	r5, r0
    9b34:	e1a07001 	mov	r7, r1
    9b38:	e1a06002 	mov	r6, r2
    9b3c:	e1a08003 	mov	r8, r3
    9b40:	e5903150 	ldr	r3, [r0, #336]	; 0x150
    9b44:	e3530000 	cmp	r3, #0
    9b48:	0a000000 	beq	9b50 <_ZN6CTimer16StartKernelTimerEjPFvjPvS0_ES0_S0_+0x24>
    9b4c:	ebffff4a 	bl	987c <EnterCritical>
    9b50:	e5953010 	ldr	r3, [r5, #16]
    9b54:	e3530000 	cmp	r3, #0
    9b58:	0a000022 	beq	9be8 <_ZN6CTimer16StartKernelTimerEjPFvjPvS0_ES0_S0_+0xbc>
    9b5c:	e3a04001 	mov	r4, #1
    9b60:	e284c001 	add	ip, r4, #1
    9b64:	e795c20c 	ldr	ip, [r5, ip, lsl #4]
    9b68:	e35c0000 	cmp	ip, #0
    9b6c:	0a00001e 	beq	9bec <_ZN6CTimer16StartKernelTimerEjPFvjPvS0_ES0_S0_+0xc0>
    9b70:	e2844001 	add	r4, r4, #1
    9b74:	e3540014 	cmp	r4, #20
    9b78:	1afffff8 	bne	9b60 <_ZN6CTimer16StartKernelTimerEjPFvjPvS0_ES0_S0_+0x34>
    9b7c:	ea000014 	b	9bd4 <_ZN6CTimer16StartKernelTimerEjPFvjPvS0_ES0_S0_+0xa8>
    9b80:	ebffff4d 	bl	98bc <LeaveCritical>
    9b84:	e3a00000 	mov	r0, #0
    9b88:	e8bd81f0 	pop	{r4, r5, r6, r7, r8, pc}
    9b8c:	e59f0064 	ldr	r0, [pc, #100]	; 9bf8 <_ZN6CTimer16StartKernelTimerEjPFvjPvS0_ES0_S0_+0xcc>
    9b90:	e59f1064 	ldr	r1, [pc, #100]	; 9bfc <_ZN6CTimer16StartKernelTimerEjPFvjPvS0_ES0_S0_+0xd0>
    9b94:	e3a020c7 	mov	r2, #199	; 0xc7
    9b98:	eb000800 	bl	bba0 <assertion_failed>
    9b9c:	e0850204 	add	r0, r5, r4, lsl #4
    9ba0:	e5806010 	str	r6, [r0, #16]
    9ba4:	e5953004 	ldr	r3, [r5, #4]
    9ba8:	e0877003 	add	r7, r7, r3
    9bac:	e5807014 	str	r7, [r0, #20]
    9bb0:	e5808018 	str	r8, [r0, #24]
    9bb4:	e59d2018 	ldr	r2, [sp, #24]
    9bb8:	e580201c 	str	r2, [r0, #28]
    9bbc:	e5953150 	ldr	r3, [r5, #336]	; 0x150
    9bc0:	e3530000 	cmp	r3, #0
    9bc4:	0a000000 	beq	9bcc <_ZN6CTimer16StartKernelTimerEjPFvjPvS0_ES0_S0_+0xa0>
    9bc8:	ebffff3b 	bl	98bc <LeaveCritical>
    9bcc:	e2840001 	add	r0, r4, #1
    9bd0:	e8bd81f0 	pop	{r4, r5, r6, r7, r8, pc}
    9bd4:	e5953150 	ldr	r3, [r5, #336]	; 0x150
    9bd8:	e3530000 	cmp	r3, #0
    9bdc:	1affffe7 	bne	9b80 <_ZN6CTimer16StartKernelTimerEjPFvjPvS0_ES0_S0_+0x54>
    9be0:	e3a00000 	mov	r0, #0
    9be4:	e8bd81f0 	pop	{r4, r5, r6, r7, r8, pc}
    9be8:	e3a04000 	mov	r4, #0
    9bec:	e3560000 	cmp	r6, #0
    9bf0:	1affffe9 	bne	9b9c <_ZN6CTimer16StartKernelTimerEjPFvjPvS0_ES0_S0_+0x70>
    9bf4:	eaffffe4 	b	9b8c <_ZN6CTimer16StartKernelTimerEjPFvjPvS0_ES0_S0_+0x60>
    9bf8:	0000e950 	andeq	lr, r0, r0, asr r9
    9bfc:	0000eb1c 	andeq	lr, r0, ip, lsl fp

00009c00 <_ZN6CTimer17CancelKernelTimerEj>:
    9c00:	e92d4038 	push	{r3, r4, r5, lr}
    9c04:	e1a04000 	mov	r4, r0
    9c08:	e2415001 	sub	r5, r1, #1
    9c0c:	e3550013 	cmp	r5, #19
    9c10:	9a000003 	bls	9c24 <_ZN6CTimer17CancelKernelTimerEj+0x24>
    9c14:	e59f0038 	ldr	r0, [pc, #56]	; 9c54 <_ZN6CTimer17CancelKernelTimerEj+0x54>
    9c18:	e59f1038 	ldr	r1, [pc, #56]	; 9c58 <_ZN6CTimer17CancelKernelTimerEj+0x58>
    9c1c:	e3a020d4 	mov	r2, #212	; 0xd4
    9c20:	eb0007de 	bl	bba0 <assertion_failed>
    9c24:	e5943150 	ldr	r3, [r4, #336]	; 0x150
    9c28:	e3530000 	cmp	r3, #0
    9c2c:	0a000000 	beq	9c34 <_ZN6CTimer17CancelKernelTimerEj+0x34>
    9c30:	ebffff11 	bl	987c <EnterCritical>
    9c34:	e2855001 	add	r5, r5, #1
    9c38:	e3a03000 	mov	r3, #0
    9c3c:	e7843205 	str	r3, [r4, r5, lsl #4]
    9c40:	e5943150 	ldr	r3, [r4, #336]	; 0x150
    9c44:	e3530000 	cmp	r3, #0
    9c48:	08bd8038 	popeq	{r3, r4, r5, pc}
    9c4c:	ebffff1a 	bl	98bc <LeaveCritical>
    9c50:	e8bd8038 	pop	{r3, r4, r5, pc}
    9c54:	0000eb28 	andeq	lr, r0, r8, lsr #22
    9c58:	0000eb1c 	andeq	lr, r0, ip, lsl fp

00009c5c <_ZN6CTimer16PollKernelTimersEv>:
    9c5c:	e92d47f0 	push	{r4, r5, r6, r7, r8, r9, sl, lr}
    9c60:	e1a07000 	mov	r7, r0
    9c64:	e5903150 	ldr	r3, [r0, #336]	; 0x150
    9c68:	e3530000 	cmp	r3, #0
    9c6c:	0a000021 	beq	9cf8 <_ZN6CTimer16PollKernelTimersEv+0x9c>
    9c70:	ebffff01 	bl	987c <EnterCritical>
    9c74:	ea00001f 	b	9cf8 <_ZN6CTimer16PollKernelTimersEv+0x9c>
    9c78:	e5946000 	ldr	r6, [r4]
    9c7c:	e3560000 	cmp	r6, #0
    9c80:	0a000013 	beq	9cd4 <_ZN6CTimer16PollKernelTimersEv+0x78>
    9c84:	e5942004 	ldr	r2, [r4, #4]
    9c88:	e5973004 	ldr	r3, [r7, #4]
    9c8c:	e0633002 	rsb	r3, r3, r2
    9c90:	e3530000 	cmp	r3, #0
    9c94:	ca00000e 	bgt	9cd4 <_ZN6CTimer16PollKernelTimersEv+0x78>
    9c98:	e5848000 	str	r8, [r4]
    9c9c:	e594a008 	ldr	sl, [r4, #8]
    9ca0:	e594900c 	ldr	r9, [r4, #12]
    9ca4:	e5973150 	ldr	r3, [r7, #336]	; 0x150
    9ca8:	e3530000 	cmp	r3, #0
    9cac:	0a000000 	beq	9cb4 <_ZN6CTimer16PollKernelTimersEv+0x58>
    9cb0:	ebffff01 	bl	98bc <LeaveCritical>
    9cb4:	e1a00005 	mov	r0, r5
    9cb8:	e1a0100a 	mov	r1, sl
    9cbc:	e1a02009 	mov	r2, r9
    9cc0:	e12fff36 	blx	r6
    9cc4:	e5973150 	ldr	r3, [r7, #336]	; 0x150
    9cc8:	e3530000 	cmp	r3, #0
    9ccc:	0a000000 	beq	9cd4 <_ZN6CTimer16PollKernelTimersEv+0x78>
    9cd0:	ebfffee9 	bl	987c <EnterCritical>
    9cd4:	e2855001 	add	r5, r5, #1
    9cd8:	e2844010 	add	r4, r4, #16
    9cdc:	e3550015 	cmp	r5, #21
    9ce0:	1affffe4 	bne	9c78 <_ZN6CTimer16PollKernelTimersEv+0x1c>
    9ce4:	e5973150 	ldr	r3, [r7, #336]	; 0x150
    9ce8:	e3530000 	cmp	r3, #0
    9cec:	08bd87f0 	popeq	{r4, r5, r6, r7, r8, r9, sl, pc}
    9cf0:	ebfffef1 	bl	98bc <LeaveCritical>
    9cf4:	e8bd87f0 	pop	{r4, r5, r6, r7, r8, r9, sl, pc}
    9cf8:	e2874010 	add	r4, r7, #16
    9cfc:	e3a05001 	mov	r5, #1
    9d00:	e3a08000 	mov	r8, #0
    9d04:	eaffffdb 	b	9c78 <_ZN6CTimer16PollKernelTimersEv+0x1c>

00009d08 <_ZN6CTimer16InterruptHandlerEv>:
    9d08:	e92d4070 	push	{r4, r5, r6, lr}
    9d0c:	e1a04000 	mov	r4, r0
    9d10:	e3a03000 	mov	r3, #0
    9d14:	ee073fba 	mcr	15, 0, r3, cr7, cr10, {5}
    9d18:	e59f00d0 	ldr	r0, [pc, #208]	; 9df0 <_ZN6CTimer16InterruptHandlerEv+0xe8>
    9d1c:	ebfffdd9 	bl	9488 <read32>
    9d20:	e3100008 	tst	r0, #8
    9d24:	1a000003 	bne	9d38 <_ZN6CTimer16InterruptHandlerEv+0x30>
    9d28:	e59f00c4 	ldr	r0, [pc, #196]	; 9df4 <_ZN6CTimer16InterruptHandlerEv+0xec>
    9d2c:	e59f10c4 	ldr	r1, [pc, #196]	; 9df8 <_ZN6CTimer16InterruptHandlerEv+0xf0>
    9d30:	e3a020ff 	mov	r2, #255	; 0xff
    9d34:	eb000799 	bl	bba0 <assertion_failed>
    9d38:	e59f60bc 	ldr	r6, [pc, #188]	; 9dfc <_ZN6CTimer16InterruptHandlerEv+0xf4>
    9d3c:	e1a00006 	mov	r0, r6
    9d40:	ebfffdd0 	bl	9488 <read32>
    9d44:	e2800c27 	add	r0, r0, #9984	; 0x2700
    9d48:	e2805010 	add	r5, r0, #16
    9d4c:	e1a00006 	mov	r0, r6
    9d50:	e1a01005 	mov	r1, r5
    9d54:	ebfffdcd 	bl	9490 <write32>
    9d58:	e59f00a0 	ldr	r0, [pc, #160]	; 9e00 <_ZN6CTimer16InterruptHandlerEv+0xf8>
    9d5c:	ebfffdc9 	bl	9488 <read32>
    9d60:	e1550000 	cmp	r5, r0
    9d64:	2a000005 	bcs	9d80 <_ZN6CTimer16InterruptHandlerEv+0x78>
    9d68:	e59f0090 	ldr	r0, [pc, #144]	; 9e00 <_ZN6CTimer16InterruptHandlerEv+0xf8>
    9d6c:	ebfffdc5 	bl	9488 <read32>
    9d70:	e2801c27 	add	r1, r0, #9984	; 0x2700
    9d74:	e1a00006 	mov	r0, r6
    9d78:	e2811010 	add	r1, r1, #16
    9d7c:	ebfffdc3 	bl	9490 <write32>
    9d80:	e59f0068 	ldr	r0, [pc, #104]	; 9df0 <_ZN6CTimer16InterruptHandlerEv+0xe8>
    9d84:	e3a01008 	mov	r1, #8
    9d88:	ebfffdc0 	bl	9490 <write32>
    9d8c:	e3a03000 	mov	r3, #0
    9d90:	ee073fba 	mcr	15, 0, r3, cr7, cr10, {5}
    9d94:	e594300c 	ldr	r3, [r4, #12]
    9d98:	e3530000 	cmp	r3, #0
    9d9c:	0a000000 	beq	9da4 <_ZN6CTimer16InterruptHandlerEv+0x9c>
    9da0:	ebfffeb5 	bl	987c <EnterCritical>
    9da4:	e5943004 	ldr	r3, [r4, #4]
    9da8:	e2833001 	add	r3, r3, #1
    9dac:	e5843004 	str	r3, [r4, #4]
    9db0:	e59f204c 	ldr	r2, [pc, #76]	; 9e04 <_ZN6CTimer16InterruptHandlerEv+0xfc>
    9db4:	e0821392 	umull	r1, r2, r2, r3
    9db8:	e1a022a2 	lsr	r2, r2, #5
    9dbc:	e3a01064 	mov	r1, #100	; 0x64
    9dc0:	e0020291 	mul	r2, r1, r2
    9dc4:	e1530002 	cmp	r3, r2
    9dc8:	05943008 	ldreq	r3, [r4, #8]
    9dcc:	02833001 	addeq	r3, r3, #1
    9dd0:	05843008 	streq	r3, [r4, #8]
    9dd4:	e594300c 	ldr	r3, [r4, #12]
    9dd8:	e3530000 	cmp	r3, #0
    9ddc:	0a000000 	beq	9de4 <_ZN6CTimer16InterruptHandlerEv+0xdc>
    9de0:	ebfffeb5 	bl	98bc <LeaveCritical>
    9de4:	e1a00004 	mov	r0, r4
    9de8:	ebffff9b 	bl	9c5c <_ZN6CTimer16PollKernelTimersEv>
    9dec:	e8bd8070 	pop	{r4, r5, r6, pc}
    9df0:	20003000 	andcs	r3, r0, r0
    9df4:	0000eb50 	andeq	lr, r0, r0, asr fp
    9df8:	0000eb1c 	andeq	lr, r0, ip, lsl fp
    9dfc:	20003018 	andcs	r3, r0, r8, lsl r0
    9e00:	20003004 	andcs	r3, r0, r4
    9e04:	51eb851f 	mvnpl	r8, pc, lsl r5

00009e08 <_ZN6CTimer16InterruptHandlerEPv>:
    9e08:	e92d4010 	push	{r4, lr}
    9e0c:	e2504000 	subs	r4, r0, #0
    9e10:	1a000003 	bne	9e24 <_ZN6CTimer16InterruptHandlerEPv+0x1c>
    9e14:	e59f0014 	ldr	r0, [pc, #20]	; 9e30 <_ZN6CTimer16InterruptHandlerEPv+0x28>
    9e18:	e59f1014 	ldr	r1, [pc, #20]	; 9e34 <_ZN6CTimer16InterruptHandlerEPv+0x2c>
    9e1c:	e3a02e12 	mov	r2, #288	; 0x120
    9e20:	eb00075e 	bl	bba0 <assertion_failed>
    9e24:	e1a00004 	mov	r0, r4
    9e28:	ebffffb6 	bl	9d08 <_ZN6CTimer16InterruptHandlerEv>
    9e2c:	e8bd8010 	pop	{r4, pc}
    9e30:	0000eb74 	andeq	lr, r0, r4, ror fp
    9e34:	0000eb1c 	andeq	lr, r0, ip, lsl fp

00009e38 <_ZN6CTimer7MsDelayEj>:
    9e38:	e92d4008 	push	{r3, lr}
    9e3c:	e3510000 	cmp	r1, #0
    9e40:	08bd8008 	popeq	{r3, pc}
    9e44:	e5900154 	ldr	r0, [r0, #340]	; 0x154
    9e48:	e0000190 	mul	r0, r0, r1
    9e4c:	eb000c97 	bl	d0b0 <DelayLoop>
    9e50:	e8bd8008 	pop	{r3, pc}

00009e54 <_ZN6CTimer7usDelayEj>:
    9e54:	e92d4008 	push	{r3, lr}
    9e58:	e3510000 	cmp	r1, #0
    9e5c:	08bd8008 	popeq	{r3, pc}
    9e60:	e5900158 	ldr	r0, [r0, #344]	; 0x158
    9e64:	e0000190 	mul	r0, r0, r1
    9e68:	eb000c90 	bl	d0b0 <DelayLoop>
    9e6c:	e8bd8008 	pop	{r3, pc}

00009e70 <_ZN6CTimer11TuneMsDelayEv>:
    9e70:	e92d4070 	push	{r4, r5, r6, lr}
    9e74:	e24dd008 	sub	sp, sp, #8
    9e78:	e1a04000 	mov	r4, r0
    9e7c:	e5905004 	ldr	r5, [r0, #4]
    9e80:	e3a01ffa 	mov	r1, #1000	; 0x3e8
    9e84:	ebffffeb 	bl	9e38 <_ZN6CTimer7MsDelayEj>
    9e88:	e5941004 	ldr	r1, [r4, #4]
    9e8c:	e59f006c 	ldr	r0, [pc, #108]	; 9f00 <_ZN6CTimer11TuneMsDelayEv+0x90>
    9e90:	e0651001 	rsb	r1, r5, r1
    9e94:	ebfffd70 	bl	945c <__aeabi_uidiv>
    9e98:	e1a05000 	mov	r5, r0
    9e9c:	e5943154 	ldr	r3, [r4, #340]	; 0x154
    9ea0:	e0030093 	mul	r3, r3, r0
    9ea4:	e59f6058 	ldr	r6, [pc, #88]	; 9f04 <_ZN6CTimer11TuneMsDelayEv+0x94>
    9ea8:	e0831396 	umull	r1, r3, r6, r3
    9eac:	e1a032a3 	lsr	r3, r3, #5
    9eb0:	e5843154 	str	r3, [r4, #340]	; 0x154
    9eb4:	e2833f7d 	add	r3, r3, #500	; 0x1f4
    9eb8:	e59f2048 	ldr	r2, [pc, #72]	; 9f08 <_ZN6CTimer11TuneMsDelayEv+0x98>
    9ebc:	e0831392 	umull	r1, r3, r2, r3
    9ec0:	e1a03323 	lsr	r3, r3, #6
    9ec4:	e5843158 	str	r3, [r4, #344]	; 0x158
    9ec8:	eb0008c0 	bl	c1d0 <_ZN7CLogger3GetEv>
    9ecc:	e0862596 	umull	r2, r6, r6, r5
    9ed0:	e1a062a6 	lsr	r6, r6, #5
    9ed4:	e58d6000 	str	r6, [sp]
    9ed8:	e3a03064 	mov	r3, #100	; 0x64
    9edc:	e0060693 	mul	r6, r3, r6
    9ee0:	e0665005 	rsb	r5, r6, r5
    9ee4:	e58d5004 	str	r5, [sp, #4]
    9ee8:	e59f101c 	ldr	r1, [pc, #28]	; 9f0c <_ZN6CTimer11TuneMsDelayEv+0x9c>
    9eec:	e3a02003 	mov	r2, #3
    9ef0:	e59f3018 	ldr	r3, [pc, #24]	; 9f10 <_ZN6CTimer11TuneMsDelayEv+0xa0>
    9ef4:	eb000969 	bl	c4a0 <_ZN7CLogger5WriteEPKc12TLogSeverityS1_z>
    9ef8:	e28dd008 	add	sp, sp, #8
    9efc:	e8bd8070 	pop	{r4, r5, r6, pc}
    9f00:	00002710 	andeq	r2, r0, r0, lsl r7
    9f04:	51eb851f 	mvnpl	r8, pc, lsl r5
    9f08:	10624dd3 	ldrdne	r4, [r2], #-211	; 0xffffff2d	; <UNPREDICTABLE>
    9f0c:	0000eb80 	andeq	lr, r0, r0, lsl #23
    9f10:	0000eb88 	andeq	lr, r0, r8, lsl #23

00009f14 <_ZN6CTimer10InitializeEv>:
    9f14:	e92d4038 	push	{r3, r4, r5, lr}
    9f18:	e1a04000 	mov	r4, r0
    9f1c:	e5903000 	ldr	r3, [r0]
    9f20:	e3530000 	cmp	r3, #0
    9f24:	1a000003 	bne	9f38 <_ZN6CTimer10InitializeEv+0x24>
    9f28:	e59f0064 	ldr	r0, [pc, #100]	; 9f94 <_ZN6CTimer10InitializeEv+0x80>
    9f2c:	e59f1064 	ldr	r1, [pc, #100]	; 9f98 <_ZN6CTimer10InitializeEv+0x84>
    9f30:	e3a0203b 	mov	r2, #59	; 0x3b
    9f34:	eb000719 	bl	bba0 <assertion_failed>
    9f38:	e5940000 	ldr	r0, [r4]
    9f3c:	e3a01003 	mov	r1, #3
    9f40:	e59f2054 	ldr	r2, [pc, #84]	; 9f9c <_ZN6CTimer10InitializeEv+0x88>
    9f44:	e1a03004 	mov	r3, r4
    9f48:	eb000d87 	bl	d56c <_ZN16CInterruptSystem10ConnectIRQEjPFvPvES0_>
    9f4c:	e3a03000 	mov	r3, #0
    9f50:	ee073fba 	mcr	15, 0, r3, cr7, cr10, {5}
    9f54:	e59f5044 	ldr	r5, [pc, #68]	; 9fa0 <_ZN6CTimer10InitializeEv+0x8c>
    9f58:	e1a00005 	mov	r0, r5
    9f5c:	e59f1040 	ldr	r1, [pc, #64]	; 9fa4 <_ZN6CTimer10InitializeEv+0x90>
    9f60:	ebfffd4a 	bl	9490 <write32>
    9f64:	e1a00005 	mov	r0, r5
    9f68:	ebfffd46 	bl	9488 <read32>
    9f6c:	e2801c27 	add	r1, r0, #9984	; 0x2700
    9f70:	e59f0030 	ldr	r0, [pc, #48]	; 9fa8 <_ZN6CTimer10InitializeEv+0x94>
    9f74:	e2811010 	add	r1, r1, #16
    9f78:	ebfffd44 	bl	9490 <write32>
    9f7c:	e1a00004 	mov	r0, r4
    9f80:	ebffffba 	bl	9e70 <_ZN6CTimer11TuneMsDelayEv>
    9f84:	e3a03000 	mov	r3, #0
    9f88:	ee073fba 	mcr	15, 0, r3, cr7, cr10, {5}
    9f8c:	e3a00001 	mov	r0, #1
    9f90:	e8bd8038 	pop	{r3, r4, r5, pc}
    9f94:	0000eba0 	andeq	lr, r0, r0, lsr #23
    9f98:	0000eb1c 	andeq	lr, r0, ip, lsl fp
    9f9c:	00009e08 	andeq	r9, r0, r8, lsl #28
    9fa0:	20003004 	andcs	r3, r0, r4
    9fa4:	fe363c80 	cdp2	12, 3, cr3, cr6, cr0, {4}
    9fa8:	20003018 	andcs	r3, r0, r8, lsl r0

00009fac <_ZN6CTimer13SimpleusDelayEj>:
    9fac:	e92d4070 	push	{r4, r5, r6, lr}
    9fb0:	e2504000 	subs	r4, r0, #0
    9fb4:	08bd8070 	popeq	{r4, r5, r6, pc}
    9fb8:	e3a03000 	mov	r3, #0
    9fbc:	ee073fba 	mcr	15, 0, r3, cr7, cr10, {5}
    9fc0:	e59f0028 	ldr	r0, [pc, #40]	; 9ff0 <_ZN6CTimer13SimpleusDelayEj+0x44>
    9fc4:	ebfffd2f 	bl	9488 <read32>
    9fc8:	e1a06000 	mov	r6, r0
    9fcc:	e59f501c 	ldr	r5, [pc, #28]	; 9ff0 <_ZN6CTimer13SimpleusDelayEj+0x44>
    9fd0:	e1a00005 	mov	r0, r5
    9fd4:	ebfffd2b 	bl	9488 <read32>
    9fd8:	e0660000 	rsb	r0, r6, r0
    9fdc:	e1540000 	cmp	r4, r0
    9fe0:	8afffffa 	bhi	9fd0 <_ZN6CTimer13SimpleusDelayEj+0x24>
    9fe4:	e3a03000 	mov	r3, #0
    9fe8:	ee073fba 	mcr	15, 0, r3, cr7, cr10, {5}
    9fec:	e8bd8070 	pop	{r4, r5, r6, pc}
    9ff0:	20003004 	andcs	r3, r0, r4

00009ff4 <_ZN6CTimer13SimpleMsDelayEj>:
    9ff4:	e92d4008 	push	{r3, lr}
    9ff8:	e3500000 	cmp	r0, #0
    9ffc:	08bd8008 	popeq	{r3, pc}
    a000:	e3a03ffa 	mov	r3, #1000	; 0x3e8
    a004:	e0000093 	mul	r0, r3, r0
    a008:	ebffffe7 	bl	9fac <_ZN6CTimer13SimpleusDelayEj>
    a00c:	e8bd8008 	pop	{r3, pc}

0000a010 <_ZN6CTimer10IsLeapYearEj>:
    a010:	e59f3048 	ldr	r3, [pc, #72]	; a060 <_ZN6CTimer10IsLeapYearEj+0x50>
    a014:	e0832093 	umull	r2, r3, r3, r0
    a018:	e1a032a3 	lsr	r3, r3, #5
    a01c:	e3a02064 	mov	r2, #100	; 0x64
    a020:	e0030392 	mul	r3, r2, r3
    a024:	e1500003 	cmp	r0, r3
    a028:	1a000008 	bne	a050 <_ZN6CTimer10IsLeapYearEj+0x40>
    a02c:	e59f302c 	ldr	r3, [pc, #44]	; a060 <_ZN6CTimer10IsLeapYearEj+0x50>
    a030:	e0832093 	umull	r2, r3, r3, r0
    a034:	e1a033a3 	lsr	r3, r3, #7
    a038:	e3a02e19 	mov	r2, #400	; 0x190
    a03c:	e0030392 	mul	r3, r2, r3
    a040:	e1500003 	cmp	r0, r3
    a044:	13a00000 	movne	r0, #0
    a048:	03a00001 	moveq	r0, #1
    a04c:	e12fff1e 	bx	lr
    a050:	e3100003 	tst	r0, #3
    a054:	13a00000 	movne	r0, #0
    a058:	03a00001 	moveq	r0, #1
    a05c:	e12fff1e 	bx	lr
    a060:	51eb851f 	mvnpl	r8, pc, lsl r5

0000a064 <_ZN6CTimer14GetDaysOfMonthEjj>:
    a064:	e92d4010 	push	{r4, lr}
    a068:	e1a04000 	mov	r4, r0
    a06c:	e3500001 	cmp	r0, #1
    a070:	1a000005 	bne	a08c <_ZN6CTimer14GetDaysOfMonthEjj+0x28>
    a074:	e1a00001 	mov	r0, r1
    a078:	ebffffe4 	bl	a010 <_ZN6CTimer10IsLeapYearEj>
    a07c:	e3500000 	cmp	r0, #0
    a080:	0a000001 	beq	a08c <_ZN6CTimer14GetDaysOfMonthEjj+0x28>
    a084:	e3a0001d 	mov	r0, #29
    a088:	e8bd8010 	pop	{r4, pc}
    a08c:	e59f3004 	ldr	r3, [pc, #4]	; a098 <_ZN6CTimer14GetDaysOfMonthEjj+0x34>
    a090:	e7930104 	ldr	r0, [r3, r4, lsl #2]
    a094:	e8bd8010 	pop	{r4, pc}
    a098:	0000eadc 	ldrdeq	lr, [r0], -ip

0000a09c <_ZN6CTimer13GetTimeStringEv>:
    a09c:	e92d4ff0 	push	{r4, r5, r6, r7, r8, r9, sl, fp, lr}
    a0a0:	e24dd014 	sub	sp, sp, #20
    a0a4:	e1a04000 	mov	r4, r0
    a0a8:	e590300c 	ldr	r3, [r0, #12]
    a0ac:	e3530000 	cmp	r3, #0
    a0b0:	0a000059 	beq	a21c <_ZN6CTimer13GetTimeStringEv+0x180>
    a0b4:	ebfffdf0 	bl	987c <EnterCritical>
    a0b8:	e5945008 	ldr	r5, [r4, #8]
    a0bc:	e5949004 	ldr	r9, [r4, #4]
    a0c0:	e594300c 	ldr	r3, [r4, #12]
    a0c4:	e3530000 	cmp	r3, #0
    a0c8:	0a000000 	beq	a0d0 <_ZN6CTimer13GetTimeStringEv+0x34>
    a0cc:	ebfffdfa 	bl	98bc <LeaveCritical>
    a0d0:	e1991005 	orrs	r1, r9, r5
    a0d4:	0a00004e 	beq	a214 <_ZN6CTimer13GetTimeStringEv+0x178>
    a0d8:	e59f7150 	ldr	r7, [pc, #336]	; a230 <_ZN6CTimer13GetTimeStringEv+0x194>
    a0dc:	e0882597 	umull	r2, r8, r7, r5
    a0e0:	e1a082a8 	lsr	r8, r8, #5
    a0e4:	e1a03008 	mov	r3, r8
    a0e8:	e0688208 	rsb	r8, r8, r8, lsl #4
    a0ec:	e0458108 	sub	r8, r5, r8, lsl #2
    a0f0:	e0871397 	umull	r1, r7, r7, r3
    a0f4:	e1a072a7 	lsr	r7, r7, #5
    a0f8:	e1a0a007 	mov	sl, r7
    a0fc:	e0677207 	rsb	r7, r7, r7, lsl #4
    a100:	e0437107 	sub	r7, r3, r7, lsl #2
    a104:	e59f4128 	ldr	r4, [pc, #296]	; a234 <_ZN6CTimer13GetTimeStringEv+0x198>
    a108:	e0842a94 	umull	r2, r4, r4, sl
    a10c:	e1a04224 	lsr	r4, r4, #4
    a110:	e59f5120 	ldr	r5, [pc, #288]	; a238 <_ZN6CTimer13GetTimeStringEv+0x19c>
    a114:	e59fb120 	ldr	fp, [pc, #288]	; a23c <_ZN6CTimer13GetTimeStringEv+0x1a0>
    a118:	e59f6120 	ldr	r6, [pc, #288]	; a240 <_ZN6CTimer13GetTimeStringEv+0x1a4>
    a11c:	e1a00005 	mov	r0, r5
    a120:	ebffffba 	bl	a010 <_ZN6CTimer10IsLeapYearEj>
    a124:	e3500000 	cmp	r0, #0
    a128:	01a0000b 	moveq	r0, fp
    a12c:	11a00006 	movne	r0, r6
    a130:	e1540000 	cmp	r4, r0
    a134:	20604004 	rsbcs	r4, r0, r4
    a138:	22855001 	addcs	r5, r5, #1
    a13c:	2afffff6 	bcs	a11c <_ZN6CTimer13GetTimeStringEv+0x80>
    a140:	e3a06000 	mov	r6, #0
    a144:	e1a00006 	mov	r0, r6
    a148:	e1a01005 	mov	r1, r5
    a14c:	ebffffc4 	bl	a064 <_ZN6CTimer14GetDaysOfMonthEjj>
    a150:	e1540000 	cmp	r4, r0
    a154:	20604004 	rsbcs	r4, r0, r4
    a158:	22866001 	addcs	r6, r6, #1
    a15c:	2afffff8 	bcs	a144 <_ZN6CTimer13GetTimeStringEv+0xa8>
    a160:	e59fb0dc 	ldr	fp, [pc, #220]	; a244 <_ZN6CTimer13GetTimeStringEv+0x1a8>
    a164:	e08b399b 	umull	r3, fp, fp, r9
    a168:	e1a0b2ab 	lsr	fp, fp, #5
    a16c:	e3a03064 	mov	r3, #100	; 0x64
    a170:	e00b0b93 	mul	fp, r3, fp
    a174:	e06bb009 	rsb	fp, fp, r9
    a178:	e3a00010 	mov	r0, #16
    a17c:	ebfffdae 	bl	983c <_Znwj>
    a180:	e1a09000 	mov	r9, r0
    a184:	eb0009c3 	bl	c898 <_ZN7CStringC1Ev>
    a188:	e3590000 	cmp	r9, #0
    a18c:	1a000003 	bne	a1a0 <_ZN6CTimer13GetTimeStringEv+0x104>
    a190:	e59f00b0 	ldr	r0, [pc, #176]	; a248 <_ZN6CTimer13GetTimeStringEv+0x1ac>
    a194:	e59f10b0 	ldr	r1, [pc, #176]	; a24c <_ZN6CTimer13GetTimeStringEv+0x1b0>
    a198:	e3a020a2 	mov	r2, #162	; 0xa2
    a19c:	eb00067f 	bl	bba0 <assertion_failed>
    a1a0:	e59f30a8 	ldr	r3, [pc, #168]	; a250 <_ZN6CTimer13GetTimeStringEv+0x1b4>
    a1a4:	e1550003 	cmp	r5, r3
    a1a8:	9a000010 	bls	a1f0 <_ZN6CTimer13GetTimeStringEv+0x154>
    a1ac:	e59f30a0 	ldr	r3, [pc, #160]	; a254 <_ZN6CTimer13GetTimeStringEv+0x1b8>
    a1b0:	e7932106 	ldr	r2, [r3, r6, lsl #2]
    a1b4:	e59f3078 	ldr	r3, [pc, #120]	; a234 <_ZN6CTimer13GetTimeStringEv+0x198>
    a1b8:	e0831a93 	umull	r1, r3, r3, sl
    a1bc:	e1a03223 	lsr	r3, r3, #4
    a1c0:	e0833083 	add	r3, r3, r3, lsl #1
    a1c4:	e04aa183 	sub	sl, sl, r3, lsl #3
    a1c8:	e58da000 	str	sl, [sp]
    a1cc:	e58d7004 	str	r7, [sp, #4]
    a1d0:	e58d8008 	str	r8, [sp, #8]
    a1d4:	e58db00c 	str	fp, [sp, #12]
    a1d8:	e1a00009 	mov	r0, r9
    a1dc:	e59f1074 	ldr	r1, [pc, #116]	; a258 <_ZN6CTimer13GetTimeStringEv+0x1bc>
    a1e0:	e2843001 	add	r3, r4, #1
    a1e4:	eb000ba6 	bl	d084 <_ZN7CString6FormatEPKcz>
    a1e8:	e1a00009 	mov	r0, r9
    a1ec:	ea00000d 	b	a228 <_ZN6CTimer13GetTimeStringEv+0x18c>
    a1f0:	e58d8000 	str	r8, [sp]
    a1f4:	e58db004 	str	fp, [sp, #4]
    a1f8:	e1a00009 	mov	r0, r9
    a1fc:	e59f1058 	ldr	r1, [pc, #88]	; a25c <_ZN6CTimer13GetTimeStringEv+0x1c0>
    a200:	e1a0200a 	mov	r2, sl
    a204:	e1a03007 	mov	r3, r7
    a208:	eb000b9d 	bl	d084 <_ZN7CString6FormatEPKcz>
    a20c:	e1a00009 	mov	r0, r9
    a210:	ea000004 	b	a228 <_ZN6CTimer13GetTimeStringEv+0x18c>
    a214:	e3a00000 	mov	r0, #0
    a218:	ea000002 	b	a228 <_ZN6CTimer13GetTimeStringEv+0x18c>
    a21c:	e5905008 	ldr	r5, [r0, #8]
    a220:	e5909004 	ldr	r9, [r0, #4]
    a224:	eaffffa9 	b	a0d0 <_ZN6CTimer13GetTimeStringEv+0x34>
    a228:	e28dd014 	add	sp, sp, #20
    a22c:	e8bd8ff0 	pop	{r4, r5, r6, r7, r8, r9, sl, fp, pc}
    a230:	88888889 	stmhi	r8, {r0, r3, r7, fp, pc}
    a234:	aaaaaaab 	bge	feab4ce8 <_end+0xfeaa4bb8>
    a238:	000007b2 			; <UNDEFINED> instruction: 0x000007b2
    a23c:	0000016d 	andeq	r0, r0, sp, ror #2
    a240:	0000016e 	andeq	r0, r0, lr, ror #2
    a244:	51eb851f 	mvnpl	r8, pc, lsl r5
    a248:	0000ebb8 			; <UNDEFINED> instruction: 0x0000ebb8
    a24c:	0000eb1c 	andeq	lr, r0, ip, lsl fp
    a250:	000007b7 			; <UNDEFINED> instruction: 0x000007b7
    a254:	00010070 	andeq	r0, r1, r0, ror r0
    a258:	0000ebc8 	andeq	lr, r0, r8, asr #23
    a25c:	0000ebe4 	andeq	lr, r0, r4, ror #23

0000a260 <_ZN6CTimer3GetEv>:
    a260:	e92d4008 	push	{r3, lr}
    a264:	e59f3024 	ldr	r3, [pc, #36]	; a290 <_ZN6CTimer3GetEv+0x30>
    a268:	e5933000 	ldr	r3, [r3]
    a26c:	e3530000 	cmp	r3, #0
    a270:	1a000003 	bne	a284 <_ZN6CTimer3GetEv+0x24>
    a274:	e59f0018 	ldr	r0, [pc, #24]	; a294 <_ZN6CTimer3GetEv+0x34>
    a278:	e59f1018 	ldr	r1, [pc, #24]	; a298 <_ZN6CTimer3GetEv+0x38>
    a27c:	e59f2018 	ldr	r2, [pc, #24]	; a29c <_ZN6CTimer3GetEv+0x3c>
    a280:	eb000646 	bl	bba0 <assertion_failed>
    a284:	e59f3004 	ldr	r3, [pc, #4]	; a290 <_ZN6CTimer3GetEv+0x30>
    a288:	e5930000 	ldr	r0, [r3]
    a28c:	e8bd8008 	pop	{r3, pc}
    a290:	000100fc 	strdeq	r0, [r1], -ip
    a294:	0000ebf8 	strdeq	lr, [r0], -r8
    a298:	0000eb1c 	andeq	lr, r0, ip, lsl fp
    a29c:	00000179 	andeq	r0, r0, r9, ror r1

0000a2a0 <memset>:
    a2a0:	e3520000 	cmp	r2, #0
    a2a4:	012fff1e 	bxeq	lr
    a2a8:	e0802002 	add	r2, r0, r2
    a2ac:	e1a03000 	mov	r3, r0
    a2b0:	e4c31001 	strb	r1, [r3], #1
    a2b4:	e1530002 	cmp	r3, r2
    a2b8:	1afffffc 	bne	a2b0 <memset+0x10>
    a2bc:	e12fff1e 	bx	lr

0000a2c0 <memcpy>:
    a2c0:	e3520000 	cmp	r2, #0
    a2c4:	012fff1e 	bxeq	lr
    a2c8:	e080c002 	add	ip, r0, r2
    a2cc:	e1a03000 	mov	r3, r0
    a2d0:	e4d12001 	ldrb	r2, [r1], #1
    a2d4:	e4c32001 	strb	r2, [r3], #1
    a2d8:	e153000c 	cmp	r3, ip
    a2dc:	1afffffb 	bne	a2d0 <memcpy+0x10>
    a2e0:	e12fff1e 	bx	lr

0000a2e4 <memcmp>:
    a2e4:	e52d4004 	push	{r4}		; (str r4, [sp, #-4]!)
    a2e8:	e2424001 	sub	r4, r2, #1
    a2ec:	e3520000 	cmp	r2, #0
    a2f0:	0a000010 	beq	a338 <memcmp+0x54>
    a2f4:	e5d02000 	ldrb	r2, [r0]
    a2f8:	e5d13000 	ldrb	r3, [r1]
    a2fc:	e1520003 	cmp	r2, r3
    a300:	8a00000e 	bhi	a340 <memcmp+0x5c>
    a304:	3a00000f 	bcc	a348 <memcmp+0x64>
    a308:	e3a03000 	mov	r3, #0
    a30c:	ea000005 	b	a328 <memcmp+0x44>
    a310:	e5f0c001 	ldrb	ip, [r0, #1]!
    a314:	e5f12001 	ldrb	r2, [r1, #1]!
    a318:	e15c0002 	cmp	ip, r2
    a31c:	8a00000b 	bhi	a350 <memcmp+0x6c>
    a320:	e2833001 	add	r3, r3, #1
    a324:	3a00000b 	bcc	a358 <memcmp+0x74>
    a328:	e1530004 	cmp	r3, r4
    a32c:	1afffff7 	bne	a310 <memcmp+0x2c>
    a330:	e3a00000 	mov	r0, #0
    a334:	ea000008 	b	a35c <memcmp+0x78>
    a338:	e3a00000 	mov	r0, #0
    a33c:	ea000006 	b	a35c <memcmp+0x78>
    a340:	e3a00001 	mov	r0, #1
    a344:	ea000004 	b	a35c <memcmp+0x78>
    a348:	e3e00000 	mvn	r0, #0
    a34c:	ea000002 	b	a35c <memcmp+0x78>
    a350:	e3a00001 	mov	r0, #1
    a354:	ea000000 	b	a35c <memcmp+0x78>
    a358:	e3e00000 	mvn	r0, #0
    a35c:	e49d4004 	pop	{r4}		; (ldr r4, [sp], #4)
    a360:	e12fff1e 	bx	lr

0000a364 <strlen>:
    a364:	e1d030d0 	ldrsb	r3, [r0]
    a368:	e3530000 	cmp	r3, #0
    a36c:	0a000005 	beq	a388 <strlen+0x24>
    a370:	e3a03000 	mov	r3, #0
    a374:	e2833001 	add	r3, r3, #1
    a378:	e19020d3 	ldrsb	r2, [r0, r3]
    a37c:	e3520000 	cmp	r2, #0
    a380:	1afffffb 	bne	a374 <strlen+0x10>
    a384:	ea000000 	b	a38c <strlen+0x28>
    a388:	e3a03000 	mov	r3, #0
    a38c:	e1a00003 	mov	r0, r3
    a390:	e12fff1e 	bx	lr

0000a394 <strcmp>:
    a394:	e52d4004 	push	{r4}		; (str r4, [sp, #-4]!)
    a398:	e5d03000 	ldrb	r3, [r0]
    a39c:	e3530000 	cmp	r3, #0
    a3a0:	0a000015 	beq	a3fc <strcmp+0x68>
    a3a4:	e5d12000 	ldrb	r2, [r1]
    a3a8:	e3520000 	cmp	r2, #0
    a3ac:	0a000012 	beq	a3fc <strcmp+0x68>
    a3b0:	e6af4073 	sxtb	r4, r3
    a3b4:	e6afc072 	sxtb	ip, r2
    a3b8:	e154000c 	cmp	r4, ip
    a3bc:	ca000018 	bgt	a424 <strcmp+0x90>
    a3c0:	ba000019 	blt	a42c <strcmp+0x98>
    a3c4:	e281c001 	add	ip, r1, #1
    a3c8:	ea000004 	b	a3e0 <strcmp+0x4c>
    a3cc:	e6af4073 	sxtb	r4, r3
    a3d0:	e6af1072 	sxtb	r1, r2
    a3d4:	e1540001 	cmp	r4, r1
    a3d8:	ca000015 	bgt	a434 <strcmp+0xa0>
    a3dc:	ba000016 	blt	a43c <strcmp+0xa8>
    a3e0:	e1a0100c 	mov	r1, ip
    a3e4:	e5f03001 	ldrb	r3, [r0, #1]!
    a3e8:	e3530000 	cmp	r3, #0
    a3ec:	0a000002 	beq	a3fc <strcmp+0x68>
    a3f0:	e4dc2001 	ldrb	r2, [ip], #1
    a3f4:	e3520000 	cmp	r2, #0
    a3f8:	1afffff3 	bne	a3cc <strcmp+0x38>
    a3fc:	e5d12000 	ldrb	r2, [r1]
    a400:	e6af0072 	sxtb	r0, r2
    a404:	e6af1073 	sxtb	r1, r3
    a408:	e1500001 	cmp	r0, r1
    a40c:	b3a00001 	movlt	r0, #1
    a410:	ba00000b 	blt	a444 <strcmp+0xb0>
    a414:	e1510000 	cmp	r1, r0
    a418:	a3a00000 	movge	r0, #0
    a41c:	b3e00000 	mvnlt	r0, #0
    a420:	ea000007 	b	a444 <strcmp+0xb0>
    a424:	e3a00001 	mov	r0, #1
    a428:	ea000005 	b	a444 <strcmp+0xb0>
    a42c:	e3e00000 	mvn	r0, #0
    a430:	ea000003 	b	a444 <strcmp+0xb0>
    a434:	e3a00001 	mov	r0, #1
    a438:	ea000001 	b	a444 <strcmp+0xb0>
    a43c:	e3e00000 	mvn	r0, #0
    a440:	eaffffff 	b	a444 <strcmp+0xb0>
    a444:	e49d4004 	pop	{r4}		; (ldr r4, [sp], #4)
    a448:	e12fff1e 	bx	lr

0000a44c <strcpy>:
    a44c:	e5d13000 	ldrb	r3, [r1]
    a450:	e3530000 	cmp	r3, #0
    a454:	0a000005 	beq	a470 <strcpy+0x24>
    a458:	e1a02000 	mov	r2, r0
    a45c:	e4c23001 	strb	r3, [r2], #1
    a460:	e5f13001 	ldrb	r3, [r1, #1]!
    a464:	e3530000 	cmp	r3, #0
    a468:	1afffffb 	bne	a45c <strcpy+0x10>
    a46c:	ea000000 	b	a474 <strcpy+0x28>
    a470:	e1a02000 	mov	r2, r0
    a474:	e3a03000 	mov	r3, #0
    a478:	e5c23000 	strb	r3, [r2]
    a47c:	e12fff1e 	bx	lr

0000a480 <strncpy>:
    a480:	e3520000 	cmp	r2, #0
    a484:	012fff1e 	bxeq	lr
    a488:	e5d13000 	ldrb	r3, [r1]
    a48c:	e3530000 	cmp	r3, #0
    a490:	0a00000b 	beq	a4c4 <strncpy+0x44>
    a494:	e1a0c001 	mov	ip, r1
    a498:	e2422001 	sub	r2, r2, #1
    a49c:	e0811002 	add	r1, r1, r2
    a4a0:	e1a02000 	mov	r2, r0
    a4a4:	ea000002 	b	a4b4 <strncpy+0x34>
    a4a8:	e5fc3001 	ldrb	r3, [ip, #1]!
    a4ac:	e3530000 	cmp	r3, #0
    a4b0:	0a000004 	beq	a4c8 <strncpy+0x48>
    a4b4:	e4c23001 	strb	r3, [r2], #1
    a4b8:	e15c0001 	cmp	ip, r1
    a4bc:	1afffff9 	bne	a4a8 <strncpy+0x28>
    a4c0:	e12fff1e 	bx	lr
    a4c4:	e1a02000 	mov	r2, r0
    a4c8:	e3a03000 	mov	r3, #0
    a4cc:	e5c23000 	strb	r3, [r2]
    a4d0:	e12fff1e 	bx	lr

0000a4d4 <strcat>:
    a4d4:	e1d030d0 	ldrsb	r3, [r0]
    a4d8:	e3530000 	cmp	r3, #0
    a4dc:	0a000006 	beq	a4fc <strcat+0x28>
    a4e0:	e2802001 	add	r2, r0, #1
    a4e4:	e1a03002 	mov	r3, r2
    a4e8:	e2822001 	add	r2, r2, #1
    a4ec:	e1d3c0d0 	ldrsb	ip, [r3]
    a4f0:	e35c0000 	cmp	ip, #0
    a4f4:	1afffffa 	bne	a4e4 <strcat+0x10>
    a4f8:	ea000000 	b	a500 <strcat+0x2c>
    a4fc:	e1a03000 	mov	r3, r0
    a500:	e5d12000 	ldrb	r2, [r1]
    a504:	e3520000 	cmp	r2, #0
    a508:	0a000003 	beq	a51c <strcat+0x48>
    a50c:	e4c32001 	strb	r2, [r3], #1
    a510:	e5f12001 	ldrb	r2, [r1, #1]!
    a514:	e3520000 	cmp	r2, #0
    a518:	1afffffb 	bne	a50c <strcat+0x38>
    a51c:	e3a02000 	mov	r2, #0
    a520:	e5c32000 	strb	r2, [r3]
    a524:	e12fff1e 	bx	lr

0000a528 <strchr>:
    a528:	e5d02000 	ldrb	r2, [r0]
    a52c:	e3520000 	cmp	r2, #0
    a530:	0a00000d 	beq	a56c <strchr+0x44>
    a534:	e6af2072 	sxtb	r2, r2
    a538:	e1520001 	cmp	r2, r1
    a53c:	012fff1e 	bxeq	lr
    a540:	e2803001 	add	r3, r0, #1
    a544:	ea000002 	b	a554 <strchr+0x2c>
    a548:	e6af2072 	sxtb	r2, r2
    a54c:	e1520001 	cmp	r2, r1
    a550:	012fff1e 	bxeq	lr
    a554:	e1a00003 	mov	r0, r3
    a558:	e4d32001 	ldrb	r2, [r3], #1
    a55c:	e3520000 	cmp	r2, #0
    a560:	1afffff8 	bne	a548 <strchr+0x20>
    a564:	e3a00000 	mov	r0, #0
    a568:	e12fff1e 	bx	lr
    a56c:	e3a00000 	mov	r0, #0
    a570:	e12fff1e 	bx	lr

0000a574 <strtok_r>:
    a574:	e92d43f8 	push	{r3, r4, r5, r6, r7, r8, r9, lr}
    a578:	e1a06001 	mov	r6, r1
    a57c:	e1a08002 	mov	r8, r2
    a580:	e3500000 	cmp	r0, #0
    a584:	1a000002 	bne	a594 <strtok_r+0x20>
    a588:	e5920000 	ldr	r0, [r2]
    a58c:	e3500000 	cmp	r0, #0
    a590:	0a000022 	beq	a620 <strtok_r+0xac>
    a594:	e1d030d0 	ldrsb	r3, [r0]
    a598:	e3530000 	cmp	r3, #0
    a59c:	11a04000 	movne	r4, r0
    a5a0:	1a000002 	bne	a5b0 <strtok_r+0x3c>
    a5a4:	e3a00000 	mov	r0, #0
    a5a8:	e5880000 	str	r0, [r8]
    a5ac:	e8bd83f8 	pop	{r3, r4, r5, r6, r7, r8, r9, pc}
    a5b0:	e1a07004 	mov	r7, r4
    a5b4:	e4d45001 	ldrb	r5, [r4], #1
    a5b8:	e1a00006 	mov	r0, r6
    a5bc:	e6af1075 	sxtb	r1, r5
    a5c0:	ebffffd8 	bl	a528 <strchr>
    a5c4:	e3500000 	cmp	r0, #0
    a5c8:	1afffff8 	bne	a5b0 <strtok_r+0x3c>
    a5cc:	e3550000 	cmp	r5, #0
    a5d0:	15d74000 	ldrbne	r4, [r7]
    a5d4:	11a09007 	movne	r9, r7
    a5d8:	1a000003 	bne	a5ec <strtok_r+0x78>
    a5dc:	e3a03000 	mov	r3, #0
    a5e0:	e5883000 	str	r3, [r8]
    a5e4:	e8bd83f8 	pop	{r3, r4, r5, r6, r7, r8, r9, pc}
    a5e8:	e1a09003 	mov	r9, r3
    a5ec:	e1a05009 	mov	r5, r9
    a5f0:	e1a00006 	mov	r0, r6
    a5f4:	e6af1074 	sxtb	r1, r4
    a5f8:	ebffffca 	bl	a528 <strchr>
    a5fc:	e3500000 	cmp	r0, #0
    a600:	1a000008 	bne	a628 <strtok_r+0xb4>
    a604:	ea00000a 	b	a634 <strtok_r+0xc0>
    a608:	e3a03000 	mov	r3, #0
    a60c:	e5c53000 	strb	r3, [r5]
    a610:	e2855001 	add	r5, r5, #1
    a614:	e5885000 	str	r5, [r8]
    a618:	e1a00007 	mov	r0, r7
    a61c:	e8bd83f8 	pop	{r3, r4, r5, r6, r7, r8, r9, pc}
    a620:	e3a00000 	mov	r0, #0
    a624:	e8bd83f8 	pop	{r3, r4, r5, r6, r7, r8, r9, pc}
    a628:	e3540000 	cmp	r4, #0
    a62c:	1afffff5 	bne	a608 <strtok_r+0x94>
    a630:	eafffff7 	b	a614 <strtok_r+0xa0>
    a634:	e2893001 	add	r3, r9, #1
    a638:	e1a05003 	mov	r5, r3
    a63c:	e5d94001 	ldrb	r4, [r9, #1]
    a640:	e3540000 	cmp	r4, #0
    a644:	1affffe7 	bne	a5e8 <strtok_r+0x74>
    a648:	eafffff1 	b	a614 <strtok_r+0xa0>

0000a64c <char2int>:
    a64c:	e12fff1e 	bx	lr

0000a650 <le2be16>:
    a650:	e1a03420 	lsr	r3, r0, #8
    a654:	e1830400 	orr	r0, r3, r0, lsl #8
    a658:	e6ff0070 	uxth	r0, r0
    a65c:	e12fff1e 	bx	lr

0000a660 <le2be32>:
    a660:	e1a03c00 	lsl	r3, r0, #24
    a664:	e1833c20 	orr	r3, r3, r0, lsr #24
    a668:	e2002cff 	and	r2, r0, #65280	; 0xff00
    a66c:	e1833402 	orr	r3, r3, r2, lsl #8
    a670:	e20008ff 	and	r0, r0, #16711680	; 0xff0000
    a674:	e1830420 	orr	r0, r3, r0, lsr #8
    a678:	e12fff1e 	bx	lr

0000a67c <_ZN14CKernelOptionsD1Ev>:
    a67c:	e3a02000 	mov	r2, #0
    a680:	e59f3004 	ldr	r3, [pc, #4]	; a68c <_ZN14CKernelOptionsD1Ev+0x10>
    a684:	e5832000 	str	r2, [r3]
    a688:	e12fff1e 	bx	lr
    a68c:	00010100 	andeq	r0, r1, r0, lsl #2

0000a690 <_ZNK14CKernelOptions8GetWidthEv>:
    a690:	e5900410 	ldr	r0, [r0, #1040]	; 0x410
    a694:	e12fff1e 	bx	lr

0000a698 <_ZNK14CKernelOptions9GetHeightEv>:
    a698:	e5900414 	ldr	r0, [r0, #1044]	; 0x414
    a69c:	e12fff1e 	bx	lr

0000a6a0 <_ZNK14CKernelOptions12GetLogDeviceEv>:
    a6a0:	e2800e41 	add	r0, r0, #1040	; 0x410
    a6a4:	e2800008 	add	r0, r0, #8
    a6a8:	e12fff1e 	bx	lr

0000a6ac <_ZNK14CKernelOptions11GetLogLevelEv>:
    a6ac:	e590042c 	ldr	r0, [r0, #1068]	; 0x42c
    a6b0:	e12fff1e 	bx	lr

0000a6b4 <_ZNK14CKernelOptions16GetUSBPowerDelayEv>:
    a6b4:	e5900430 	ldr	r0, [r0, #1072]	; 0x430
    a6b8:	e12fff1e 	bx	lr

0000a6bc <_ZN14CKernelOptions3GetEv>:
    a6bc:	e59f3004 	ldr	r3, [pc, #4]	; a6c8 <_ZN14CKernelOptions3GetEv+0xc>
    a6c0:	e5930000 	ldr	r0, [r3]
    a6c4:	e12fff1e 	bx	lr
    a6c8:	00010100 	andeq	r0, r1, r0, lsl #2

0000a6cc <_ZN14CKernelOptions8GetTokenEv>:
    a6cc:	e1a01000 	mov	r1, r0
    a6d0:	e590040c 	ldr	r0, [r0, #1036]	; 0x40c
    a6d4:	e5d02000 	ldrb	r2, [r0]
    a6d8:	e6af3072 	sxtb	r3, r2
    a6dc:	e3530020 	cmp	r3, #32
    a6e0:	1a000006 	bne	a700 <_ZN14CKernelOptions8GetTokenEv+0x34>
    a6e4:	e2803001 	add	r3, r0, #1
    a6e8:	e1a00003 	mov	r0, r3
    a6ec:	e581340c 	str	r3, [r1, #1036]	; 0x40c
    a6f0:	e4d32001 	ldrb	r2, [r3], #1
    a6f4:	e6afc072 	sxtb	ip, r2
    a6f8:	e35c0020 	cmp	ip, #32
    a6fc:	0afffff9 	beq	a6e8 <_ZN14CKernelOptions8GetTokenEv+0x1c>
    a700:	e3520000 	cmp	r2, #0
    a704:	0a000016 	beq	a764 <_ZN14CKernelOptions8GetTokenEv+0x98>
    a708:	e591c40c 	ldr	ip, [r1, #1036]	; 0x40c
    a70c:	e5dc3000 	ldrb	r3, [ip]
    a710:	e3530000 	cmp	r3, #0
    a714:	012fff1e 	bxeq	lr
    a718:	e6af3073 	sxtb	r3, r3
    a71c:	e3530020 	cmp	r3, #32
    a720:	128c3001 	addne	r3, ip, #1
    a724:	1a000008 	bne	a74c <_ZN14CKernelOptions8GetTokenEv+0x80>
    a728:	ea000002 	b	a738 <_ZN14CKernelOptions8GetTokenEv+0x6c>
    a72c:	e6af2072 	sxtb	r2, r2
    a730:	e3520020 	cmp	r2, #32
    a734:	1a000004 	bne	a74c <_ZN14CKernelOptions8GetTokenEv+0x80>
    a738:	e28c3001 	add	r3, ip, #1
    a73c:	e581340c 	str	r3, [r1, #1036]	; 0x40c
    a740:	e3a03000 	mov	r3, #0
    a744:	e5cc3000 	strb	r3, [ip]
    a748:	e12fff1e 	bx	lr
    a74c:	e1a0c003 	mov	ip, r3
    a750:	e581340c 	str	r3, [r1, #1036]	; 0x40c
    a754:	e4d32001 	ldrb	r2, [r3], #1
    a758:	e3520000 	cmp	r2, #0
    a75c:	1afffff2 	bne	a72c <_ZN14CKernelOptions8GetTokenEv+0x60>
    a760:	e12fff1e 	bx	lr
    a764:	e3a00000 	mov	r0, #0
    a768:	e12fff1e 	bx	lr

0000a76c <_ZN14CKernelOptions14GetOptionValueEPc>:
    a76c:	e5d03000 	ldrb	r3, [r0]
    a770:	e3530000 	cmp	r3, #0
    a774:	0a00000d 	beq	a7b0 <_ZN14CKernelOptions14GetOptionValueEPc+0x44>
    a778:	e6af3073 	sxtb	r3, r3
    a77c:	e353003d 	cmp	r3, #61	; 0x3d
    a780:	0a00000c 	beq	a7b8 <_ZN14CKernelOptions14GetOptionValueEPc+0x4c>
    a784:	e2803001 	add	r3, r0, #1
    a788:	ea000002 	b	a798 <_ZN14CKernelOptions14GetOptionValueEPc+0x2c>
    a78c:	e6af2072 	sxtb	r2, r2
    a790:	e352003d 	cmp	r2, #61	; 0x3d
    a794:	0a000007 	beq	a7b8 <_ZN14CKernelOptions14GetOptionValueEPc+0x4c>
    a798:	e1a00003 	mov	r0, r3
    a79c:	e4d32001 	ldrb	r2, [r3], #1
    a7a0:	e3520000 	cmp	r2, #0
    a7a4:	1afffff8 	bne	a78c <_ZN14CKernelOptions14GetOptionValueEPc+0x20>
    a7a8:	e3a00000 	mov	r0, #0
    a7ac:	e12fff1e 	bx	lr
    a7b0:	e3a00000 	mov	r0, #0
    a7b4:	e12fff1e 	bx	lr
    a7b8:	e3a03000 	mov	r3, #0
    a7bc:	e4c03001 	strb	r3, [r0], #1
    a7c0:	e12fff1e 	bx	lr

0000a7c4 <_ZN14CKernelOptions10GetDecimalEPc>:
    a7c4:	e3500000 	cmp	r0, #0
    a7c8:	0a000018 	beq	a830 <_ZN14CKernelOptions10GetDecimalEPc+0x6c>
    a7cc:	e5d03000 	ldrb	r3, [r0]
    a7d0:	e3530000 	cmp	r3, #0
    a7d4:	0a000017 	beq	a838 <_ZN14CKernelOptions10GetDecimalEPc+0x74>
    a7d8:	ea00001c 	b	a850 <_ZN14CKernelOptions10GetDecimalEPc+0x8c>
    a7dc:	e1a02000 	mov	r2, r0
    a7e0:	e2431030 	sub	r1, r3, #48	; 0x30
    a7e4:	e6ef1071 	uxtb	r1, r1
    a7e8:	e3510009 	cmp	r1, #9
    a7ec:	8a000013 	bhi	a840 <_ZN14CKernelOptions10GetDecimalEPc+0x7c>
    a7f0:	e0820102 	add	r0, r2, r2, lsl #2
    a7f4:	e6af3073 	sxtb	r3, r3
    a7f8:	e0830080 	add	r0, r3, r0, lsl #1
    a7fc:	e2400030 	sub	r0, r0, #48	; 0x30
    a800:	e3700001 	cmn	r0, #1
    a804:	13a03000 	movne	r3, #0
    a808:	03a03001 	moveq	r3, #1
    a80c:	e1520000 	cmp	r2, r0
    a810:	91a02003 	movls	r2, r3
    a814:	83832001 	orrhi	r2, r3, #1
    a818:	e3520000 	cmp	r2, #0
    a81c:	1a000009 	bne	a848 <_ZN14CKernelOptions10GetDecimalEPc+0x84>
    a820:	e5fc3001 	ldrb	r3, [ip, #1]!
    a824:	e3530000 	cmp	r3, #0
    a828:	1affffeb 	bne	a7dc <_ZN14CKernelOptions10GetDecimalEPc+0x18>
    a82c:	e12fff1e 	bx	lr
    a830:	e3e00000 	mvn	r0, #0
    a834:	e12fff1e 	bx	lr
    a838:	e3e00000 	mvn	r0, #0
    a83c:	e12fff1e 	bx	lr
    a840:	e3e00000 	mvn	r0, #0
    a844:	e12fff1e 	bx	lr
    a848:	e3e00000 	mvn	r0, #0
    a84c:	e12fff1e 	bx	lr
    a850:	e1a0c000 	mov	ip, r0
    a854:	e3a02000 	mov	r2, #0
    a858:	eaffffe0 	b	a7e0 <_ZN14CKernelOptions10GetDecimalEPc+0x1c>

0000a85c <_ZN14CKernelOptionsC1Ev>:
    a85c:	e92d4ff0 	push	{r4, r5, r6, r7, r8, r9, sl, fp, lr}
    a860:	e24dd014 	sub	sp, sp, #20
    a864:	e1a04000 	mov	r4, r0
    a868:	e3a05000 	mov	r5, #0
    a86c:	e5805410 	str	r5, [r0, #1040]	; 0x410
    a870:	e5805414 	str	r5, [r0, #1044]	; 0x414
    a874:	e3a03004 	mov	r3, #4
    a878:	e580342c 	str	r3, [r0, #1068]	; 0x42c
    a87c:	e5805430 	str	r5, [r0, #1072]	; 0x430
    a880:	e2808e41 	add	r8, r0, #1040	; 0x410
    a884:	e2888008 	add	r8, r8, #8
    a888:	e1a00008 	mov	r0, r8
    a88c:	e59f1180 	ldr	r1, [pc, #384]	; aa14 <_ZN14CKernelOptionsC1Ev+0x1b8>
    a890:	ebfffeed 	bl	a44c <strcpy>
    a894:	e59f317c 	ldr	r3, [pc, #380]	; aa18 <_ZN14CKernelOptionsC1Ev+0x1bc>
    a898:	e5834000 	str	r4, [r3]
    a89c:	e28d0008 	add	r0, sp, #8
    a8a0:	ebfff7df 	bl	8824 <_ZN16CBcmPropertyTagsC1Ev>
    a8a4:	e58d5000 	str	r5, [sp]
    a8a8:	e28d0008 	add	r0, sp, #8
    a8ac:	e59f1168 	ldr	r1, [pc, #360]	; aa1c <_ZN14CKernelOptionsC1Ev+0x1c0>
    a8b0:	e1a02004 	mov	r2, r4
    a8b4:	e59f3164 	ldr	r3, [pc, #356]	; aa20 <_ZN14CKernelOptionsC1Ev+0x1c4>
    a8b8:	ebfff7e4 	bl	8850 <_ZN16CBcmPropertyTags6GetTagEjPvjj>
    a8bc:	e1500005 	cmp	r0, r5
    a8c0:	0a00004d 	beq	a9fc <_ZN14CKernelOptionsC1Ev+0x1a0>
    a8c4:	e5943008 	ldr	r3, [r4, #8]
    a8c8:	e3530b01 	cmp	r3, #1024	; 0x400
    a8cc:	2a00004a 	bcs	a9fc <_ZN14CKernelOptionsC1Ev+0x1a0>
    a8d0:	e0843003 	add	r3, r4, r3
    a8d4:	e5c3500c 	strb	r5, [r3, #12]
    a8d8:	e284300c 	add	r3, r4, #12
    a8dc:	e584340c 	str	r3, [r4, #1036]	; 0x40c
    a8e0:	e59f713c 	ldr	r7, [pc, #316]	; aa24 <_ZN14CKernelOptionsC1Ev+0x1c8>
    a8e4:	e59f913c 	ldr	r9, [pc, #316]	; aa28 <_ZN14CKernelOptionsC1Ev+0x1cc>
    a8e8:	e59fa13c 	ldr	sl, [pc, #316]	; aa2c <_ZN14CKernelOptionsC1Ev+0x1d0>
    a8ec:	e59fb13c 	ldr	fp, [pc, #316]	; aa30 <_ZN14CKernelOptionsC1Ev+0x1d4>
    a8f0:	ea00003a 	b	a9e0 <_ZN14CKernelOptionsC1Ev+0x184>
    a8f4:	e1a00005 	mov	r0, r5
    a8f8:	ebffff9b 	bl	a76c <_ZN14CKernelOptions14GetOptionValueEPc>
    a8fc:	e1a06000 	mov	r6, r0
    a900:	e1a00005 	mov	r0, r5
    a904:	e1a01007 	mov	r1, r7
    a908:	ebfffea1 	bl	a394 <strcmp>
    a90c:	e3500000 	cmp	r0, #0
    a910:	1a000006 	bne	a930 <_ZN14CKernelOptionsC1Ev+0xd4>
    a914:	e1a00006 	mov	r0, r6
    a918:	ebffffa9 	bl	a7c4 <_ZN14CKernelOptions10GetDecimalEPc>
    a91c:	e2402d0a 	sub	r2, r0, #640	; 0x280
    a920:	e59f310c 	ldr	r3, [pc, #268]	; aa34 <_ZN14CKernelOptionsC1Ev+0x1d8>
    a924:	e1520003 	cmp	r2, r3
    a928:	95840410 	strls	r0, [r4, #1040]	; 0x410
    a92c:	ea00002b 	b	a9e0 <_ZN14CKernelOptionsC1Ev+0x184>
    a930:	e1a00005 	mov	r0, r5
    a934:	e1a01009 	mov	r1, r9
    a938:	ebfffe95 	bl	a394 <strcmp>
    a93c:	e3500000 	cmp	r0, #0
    a940:	1a000005 	bne	a95c <_ZN14CKernelOptionsC1Ev+0x100>
    a944:	e1a00006 	mov	r0, r6
    a948:	ebffff9d 	bl	a7c4 <_ZN14CKernelOptions10GetDecimalEPc>
    a94c:	e2403e1e 	sub	r3, r0, #480	; 0x1e0
    a950:	e3530f96 	cmp	r3, #600	; 0x258
    a954:	95840414 	strls	r0, [r4, #1044]	; 0x414
    a958:	ea000020 	b	a9e0 <_ZN14CKernelOptionsC1Ev+0x184>
    a95c:	e1a00005 	mov	r0, r5
    a960:	e1a0100a 	mov	r1, sl
    a964:	ebfffe8a 	bl	a394 <strcmp>
    a968:	e3500000 	cmp	r0, #0
    a96c:	1a000006 	bne	a98c <_ZN14CKernelOptionsC1Ev+0x130>
    a970:	e1a00008 	mov	r0, r8
    a974:	e1a01006 	mov	r1, r6
    a978:	e3a02013 	mov	r2, #19
    a97c:	ebfffebf 	bl	a480 <strncpy>
    a980:	e3a03000 	mov	r3, #0
    a984:	e5c4342b 	strb	r3, [r4, #1067]	; 0x42b
    a988:	ea000014 	b	a9e0 <_ZN14CKernelOptionsC1Ev+0x184>
    a98c:	e1a00005 	mov	r0, r5
    a990:	e1a0100b 	mov	r1, fp
    a994:	ebfffe7e 	bl	a394 <strcmp>
    a998:	e3500000 	cmp	r0, #0
    a99c:	1a000004 	bne	a9b4 <_ZN14CKernelOptionsC1Ev+0x158>
    a9a0:	e1a00006 	mov	r0, r6
    a9a4:	ebffff86 	bl	a7c4 <_ZN14CKernelOptions10GetDecimalEPc>
    a9a8:	e3500004 	cmp	r0, #4
    a9ac:	9584042c 	strls	r0, [r4, #1068]	; 0x42c
    a9b0:	ea00000a 	b	a9e0 <_ZN14CKernelOptionsC1Ev+0x184>
    a9b4:	e1a00005 	mov	r0, r5
    a9b8:	e59f1078 	ldr	r1, [pc, #120]	; aa38 <_ZN14CKernelOptionsC1Ev+0x1dc>
    a9bc:	ebfffe74 	bl	a394 <strcmp>
    a9c0:	e3500000 	cmp	r0, #0
    a9c4:	1a000005 	bne	a9e0 <_ZN14CKernelOptionsC1Ev+0x184>
    a9c8:	e1a00006 	mov	r0, r6
    a9cc:	ebffff7c 	bl	a7c4 <_ZN14CKernelOptions10GetDecimalEPc>
    a9d0:	e24030c8 	sub	r3, r0, #200	; 0xc8
    a9d4:	e59f2060 	ldr	r2, [pc, #96]	; aa3c <_ZN14CKernelOptionsC1Ev+0x1e0>
    a9d8:	e1530002 	cmp	r3, r2
    a9dc:	95840430 	strls	r0, [r4, #1072]	; 0x430
    a9e0:	e1a00004 	mov	r0, r4
    a9e4:	ebffff38 	bl	a6cc <_ZN14CKernelOptions8GetTokenEv>
    a9e8:	e2505000 	subs	r5, r0, #0
    a9ec:	1affffc0 	bne	a8f4 <_ZN14CKernelOptionsC1Ev+0x98>
    a9f0:	e28d0008 	add	r0, sp, #8
    a9f4:	ebfff790 	bl	883c <_ZN16CBcmPropertyTagsD1Ev>
    a9f8:	ea000002 	b	aa08 <_ZN14CKernelOptionsC1Ev+0x1ac>
    a9fc:	e28d0008 	add	r0, sp, #8
    aa00:	ebfff78d 	bl	883c <_ZN16CBcmPropertyTagsD1Ev>
    aa04:	eaffffff 	b	aa08 <_ZN14CKernelOptionsC1Ev+0x1ac>
    aa08:	e1a00004 	mov	r0, r4
    aa0c:	e28dd014 	add	sp, sp, #20
    aa10:	e8bd8ff0 	pop	{r4, r5, r6, r7, r8, r9, sl, fp, pc}
    aa14:	0000ec38 	andeq	lr, r0, r8, lsr ip
    aa18:	00010100 	andeq	r0, r1, r0, lsl #2
    aa1c:	00050001 	andeq	r0, r5, r1
    aa20:	0000040c 	andeq	r0, r0, ip, lsl #8
    aa24:	0000ec40 	andeq	lr, r0, r0, asr #24
    aa28:	0000ec48 	andeq	lr, r0, r8, asr #24
    aa2c:	0000ec50 	andeq	lr, r0, r0, asr ip
    aa30:	0000ec58 	andeq	lr, r0, r8, asr ip
    aa34:	0000053c 	andeq	r0, r0, ip, lsr r5
    aa38:	0000ec64 	andeq	lr, r0, r4, ror #24
    aa3c:	00001e78 	andeq	r1, r0, r8, ror lr

0000aa40 <_ZN10CPageTableC1Ev>:
    aa40:	e92d0070 	push	{r4, r5, r6}
    aa44:	e3a03000 	mov	r3, #0
    aa48:	e5803000 	str	r3, [r0]
    aa4c:	e3a0298e 	mov	r2, #2326528	; 0x238000
    aa50:	e5802004 	str	r2, [r0, #4]
    aa54:	e59f6064 	ldr	r6, [pc, #100]	; aac0 <_ZN10CPageTableC1Ev+0x80>
    aa58:	e5902004 	ldr	r2, [r0, #4]
    aa5c:	e0821103 	add	r1, r2, r3, lsl #2
    aa60:	e3a0c006 	mov	ip, #6
    aa64:	e7c2c103 	strb	ip, [r2, r3, lsl #2]
    aa68:	e3a0c004 	mov	ip, #4
    aa6c:	e5c1c001 	strb	ip, [r1, #1]
    aa70:	e1a0ca03 	lsl	ip, r3, #20
    aa74:	e1a0ca2c 	lsr	ip, ip, #20
    aa78:	e20c500f 	and	r5, ip, #15
    aa7c:	e3a04001 	mov	r4, #1
    aa80:	e1844205 	orr	r4, r4, r5, lsl #4
    aa84:	e5c14002 	strb	r4, [r1, #2]
    aa88:	e1a0c22c 	lsr	ip, ip, #4
    aa8c:	e5c1c003 	strb	ip, [r1, #3]
    aa90:	e1530006 	cmp	r3, r6
    aa94:	87d21103 	ldrbhi	r1, [r2, r3, lsl #2]
    aa98:	83811010 	orrhi	r1, r1, #16
    aa9c:	87c21103 	strbhi	r1, [r2, r3, lsl #2]
    aaa0:	e2833001 	add	r3, r3, #1
    aaa4:	e3530a01 	cmp	r3, #4096	; 0x1000
    aaa8:	1affffea 	bne	aa58 <_ZN10CPageTableC1Ev+0x18>
    aaac:	e3a03000 	mov	r3, #0
    aab0:	ee073f1a 	mcr	15, 0, r3, cr7, cr10, {0}
    aab4:	ee073f9a 	mcr	15, 0, r3, cr7, cr10, {4}
    aab8:	e8bd0070 	pop	{r4, r5, r6}
    aabc:	e12fff1e 	bx	lr
    aac0:	000001ff 	strdeq	r0, [r0], -pc	; <UNPREDICTABLE>

0000aac4 <_ZN10CPageTableC1Ej>:
    aac4:	e92d40f8 	push	{r3, r4, r5, r6, r7, lr}
    aac8:	e1a06000 	mov	r6, r0
    aacc:	e1a07001 	mov	r7, r1
    aad0:	e3a03001 	mov	r3, #1
    aad4:	e5803000 	str	r3, [r0]
    aad8:	eb000d7e 	bl	e0d8 <palloc>
    aadc:	e5860004 	str	r0, [r6, #4]
    aae0:	e3500000 	cmp	r0, #0
    aae4:	1a000003 	bne	aaf8 <_ZN10CPageTableC1Ej+0x34>
    aae8:	e59f00c0 	ldr	r0, [pc, #192]	; abb0 <_ZN10CPageTableC1Ej+0xec>
    aaec:	e59f10c0 	ldr	r1, [pc, #192]	; abb4 <_ZN10CPageTableC1Ej+0xf0>
    aaf0:	e3a02051 	mov	r2, #81	; 0x51
    aaf4:	eb000429 	bl	bba0 <assertion_failed>
    aaf8:	e5963004 	ldr	r3, [r6, #4]
    aafc:	e1b03a03 	lsls	r3, r3, #20
    ab00:	0a000021 	beq	ab8c <_ZN10CPageTableC1Ej+0xc8>
    ab04:	e59f00ac 	ldr	r0, [pc, #172]	; abb8 <_ZN10CPageTableC1Ej+0xf4>
    ab08:	e59f10a4 	ldr	r1, [pc, #164]	; abb4 <_ZN10CPageTableC1Ej+0xf0>
    ab0c:	e3a02052 	mov	r2, #82	; 0x52
    ab10:	eb000422 	bl	bba0 <assertion_failed>
    ab14:	ea00001c 	b	ab8c <_ZN10CPageTableC1Ej+0xc8>
    ab18:	e5964004 	ldr	r4, [r6, #4]
    ab1c:	e0842003 	add	r2, r4, r3
    ab20:	e3a0100e 	mov	r1, #14
    ab24:	e7c41003 	strb	r1, [r4, r3]
    ab28:	e3a01004 	mov	r1, #4
    ab2c:	e5c21001 	strb	r1, [r2, #1]
    ab30:	e1a05a2c 	lsr	r5, ip, #20
    ab34:	e1a01115 	lsl	r1, r5, r1
    ab38:	e5c21002 	strb	r1, [r2, #2]
    ab3c:	e1a05225 	lsr	r5, r5, #4
    ab40:	e5c25003 	strb	r5, [r2, #3]
    ab44:	e15c0000 	cmp	ip, r0
    ab48:	3a00000a 	bcc	ab78 <_ZN10CPageTableC1Ej+0xb4>
    ab4c:	e7d41003 	ldrb	r1, [r4, r3]
    ab50:	e3811010 	orr	r1, r1, #16
    ab54:	e7c41003 	strb	r1, [r4, r3]
    ab58:	e15c0007 	cmp	ip, r7
    ab5c:	3a000005 	bcc	ab78 <_ZN10CPageTableC1Ej+0xb4>
    ab60:	e6ef1071 	uxtb	r1, r1
    ab64:	e3c11008 	bic	r1, r1, #8
    ab68:	e5c21000 	strb	r1, [r2]
    ab6c:	e5d21002 	ldrb	r1, [r2, #2]
    ab70:	e3811001 	orr	r1, r1, #1
    ab74:	e5c21002 	strb	r1, [r2, #2]
    ab78:	e2833004 	add	r3, r3, #4
    ab7c:	e28cc601 	add	ip, ip, #1048576	; 0x100000
    ab80:	e3530b02 	cmp	r3, #2048	; 0x800
    ab84:	1affffe3 	bne	ab18 <_ZN10CPageTableC1Ej+0x54>
    ab88:	ea000003 	b	ab9c <_ZN10CPageTableC1Ej+0xd8>
    ab8c:	e3a0c000 	mov	ip, #0
    ab90:	e1a0300c 	mov	r3, ip
    ab94:	e59f0020 	ldr	r0, [pc, #32]	; abbc <_ZN10CPageTableC1Ej+0xf8>
    ab98:	eaffffde 	b	ab18 <_ZN10CPageTableC1Ej+0x54>
    ab9c:	e3a03000 	mov	r3, #0
    aba0:	ee073f1a 	mcr	15, 0, r3, cr7, cr10, {0}
    aba4:	ee073f9a 	mcr	15, 0, r3, cr7, cr10, {4}
    aba8:	e1a00006 	mov	r0, r6
    abac:	e8bd80f8 	pop	{r3, r4, r5, r6, r7, pc}
    abb0:	0000ec74 	andeq	lr, r0, r4, ror ip
    abb4:	0000ec84 	andeq	lr, r0, r4, lsl #25
    abb8:	0000ec94 	muleq	r0, r4, ip
    abbc:	0000e6d8 	ldrdeq	lr, [r0], -r8

0000abc0 <_ZN10CPageTableD1Ev>:
    abc0:	e92d4010 	push	{r4, lr}
    abc4:	e1a04000 	mov	r4, r0
    abc8:	e5903000 	ldr	r3, [r0]
    abcc:	e3530000 	cmp	r3, #0
    abd0:	0a000003 	beq	abe4 <_ZN10CPageTableD1Ev+0x24>
    abd4:	e5900004 	ldr	r0, [r0, #4]
    abd8:	eb000d7c 	bl	e1d0 <pfree>
    abdc:	e3a03000 	mov	r3, #0
    abe0:	e5843004 	str	r3, [r4, #4]
    abe4:	e1a00004 	mov	r0, r4
    abe8:	e8bd8010 	pop	{r4, pc}

0000abec <_ZNK10CPageTable14GetBaseAddressEv>:
    abec:	e5900004 	ldr	r0, [r0, #4]
    abf0:	e3800001 	orr	r0, r0, #1
    abf4:	e12fff1e 	bx	lr

0000abf8 <_ZN13CScreenDeviceD1Ev>:
    abf8:	e92d4038 	push	{r3, r4, r5, lr}
    abfc:	e1a04000 	mov	r4, r0
    ac00:	e59f3060 	ldr	r3, [pc, #96]	; ac68 <_ZN13CScreenDeviceD1Ev+0x70>
    ac04:	e5803000 	str	r3, [r0]
    ac08:	e590300c 	ldr	r3, [r0, #12]
    ac0c:	e3530000 	cmp	r3, #0
    ac10:	0a000003 	beq	ac24 <_ZN13CScreenDeviceD1Ev+0x2c>
    ac14:	e5900018 	ldr	r0, [r0, #24]
    ac18:	e3500000 	cmp	r0, #0
    ac1c:	0a000000 	beq	ac24 <_ZN13CScreenDeviceD1Ev+0x2c>
    ac20:	ebfffb10 	bl	9868 <_ZdaPv>
    ac24:	e3a03000 	mov	r3, #0
    ac28:	e5843018 	str	r3, [r4, #24]
    ac2c:	e5945010 	ldr	r5, [r4, #16]
    ac30:	e1550003 	cmp	r5, r3
    ac34:	0a000003 	beq	ac48 <_ZN13CScreenDeviceD1Ev+0x50>
    ac38:	e1a00005 	mov	r0, r5
    ac3c:	eb000e58 	bl	e5a4 <_ZN15CBcmFrameBufferD1Ev>
    ac40:	e1a00005 	mov	r0, r5
    ac44:	ebfffb02 	bl	9854 <_ZdlPv>
    ac48:	e3a03000 	mov	r3, #0
    ac4c:	e5843010 	str	r3, [r4, #16]
    ac50:	e2840014 	add	r0, r4, #20
    ac54:	eb0003f6 	bl	bc34 <_ZN14CCharGeneratorD1Ev>
    ac58:	e1a00004 	mov	r0, r4
    ac5c:	eb000e87 	bl	e680 <_ZN7CDeviceD1Ev>
    ac60:	e1a00004 	mov	r0, r4
    ac64:	e8bd8038 	pop	{r3, r4, r5, pc}
    ac68:	0000ecc0 	andeq	lr, r0, r0, asr #25

0000ac6c <_ZN13CScreenDeviceD0Ev>:
    ac6c:	e92d4010 	push	{r4, lr}
    ac70:	e1a04000 	mov	r4, r0
    ac74:	ebffffdf 	bl	abf8 <_ZN13CScreenDeviceD1Ev>
    ac78:	e1a00004 	mov	r0, r4
    ac7c:	ebfffaf4 	bl	9854 <_ZdlPv>
    ac80:	e1a00004 	mov	r0, r4
    ac84:	e8bd8010 	pop	{r4, pc}

0000ac88 <_ZN13CScreenDeviceC1Ejji>:
    ac88:	e92d40f8 	push	{r3, r4, r5, r6, r7, lr}
    ac8c:	e1a04000 	mov	r4, r0
    ac90:	e1a07001 	mov	r7, r1
    ac94:	e1a06002 	mov	r6, r2
    ac98:	e1a05003 	mov	r5, r3
    ac9c:	eb000e89 	bl	e6c8 <_ZN7CDeviceC1Ev>
    aca0:	e59f304c 	ldr	r3, [pc, #76]	; acf4 <_ZN13CScreenDeviceC1Ejji+0x6c>
    aca4:	e5843000 	str	r3, [r4]
    aca8:	e5847004 	str	r7, [r4, #4]
    acac:	e5846008 	str	r6, [r4, #8]
    acb0:	e584500c 	str	r5, [r4, #12]
    acb4:	e3a05000 	mov	r5, #0
    acb8:	e5845010 	str	r5, [r4, #16]
    acbc:	e2840014 	add	r0, r4, #20
    acc0:	eb0003d8 	bl	bc28 <_ZN14CCharGeneratorC1Ev>
    acc4:	e5845018 	str	r5, [r4, #24]
    acc8:	e584502c 	str	r5, [r4, #44]	; 0x2c
    accc:	e5845030 	str	r5, [r4, #48]	; 0x30
    acd0:	e5845034 	str	r5, [r4, #52]	; 0x34
    acd4:	e3a03001 	mov	r3, #1
    acd8:	e5843038 	str	r3, [r4, #56]	; 0x38
    acdc:	e5c4303c 	strb	r3, [r4, #60]	; 0x3c
    ace0:	e5845040 	str	r5, [r4, #64]	; 0x40
    ace4:	e584504c 	str	r5, [r4, #76]	; 0x4c
    ace8:	e5843050 	str	r3, [r4, #80]	; 0x50
    acec:	e1a00004 	mov	r0, r4
    acf0:	e8bd80f8 	pop	{r3, r4, r5, r6, r7, pc}
    acf4:	0000ecc0 	andeq	lr, r0, r0, asr #25

0000acf8 <_ZNK13CScreenDevice8GetWidthEv>:
    acf8:	e5900020 	ldr	r0, [r0, #32]
    acfc:	e12fff1e 	bx	lr

0000ad00 <_ZNK13CScreenDevice9GetHeightEv>:
    ad00:	e5900024 	ldr	r0, [r0, #36]	; 0x24
    ad04:	e12fff1e 	bx	lr

0000ad08 <_ZN13CScreenDevice9GetStatusEv>:
    ad08:	e5912018 	ldr	r2, [r1, #24]
    ad0c:	e5802000 	str	r2, [r0]
    ad10:	e591202c 	ldr	r2, [r1, #44]	; 0x2c
    ad14:	e5802004 	str	r2, [r0, #4]
    ad18:	e5912030 	ldr	r2, [r1, #48]	; 0x30
    ad1c:	e5802008 	str	r2, [r0, #8]
    ad20:	e5912034 	ldr	r2, [r1, #52]	; 0x34
    ad24:	e580200c 	str	r2, [r0, #12]
    ad28:	e5912038 	ldr	r2, [r1, #56]	; 0x38
    ad2c:	e5802010 	str	r2, [r0, #16]
    ad30:	e5d1203c 	ldrb	r2, [r1, #60]	; 0x3c
    ad34:	e5c02014 	strb	r2, [r0, #20]
    ad38:	e5912040 	ldr	r2, [r1, #64]	; 0x40
    ad3c:	e5802018 	str	r2, [r0, #24]
    ad40:	e5912044 	ldr	r2, [r1, #68]	; 0x44
    ad44:	e580201c 	str	r2, [r0, #28]
    ad48:	e5912048 	ldr	r2, [r1, #72]	; 0x48
    ad4c:	e5802020 	str	r2, [r0, #32]
    ad50:	e591204c 	ldr	r2, [r1, #76]	; 0x4c
    ad54:	e5802024 	str	r2, [r0, #36]	; 0x24
    ad58:	e12fff1e 	bx	lr

0000ad5c <_ZN13CScreenDevice9SetStatusE13TScreenStatus>:
    ad5c:	e24dd010 	sub	sp, sp, #16
    ad60:	e92d4010 	push	{r4, lr}
    ad64:	e1a04000 	mov	r4, r0
    ad68:	e28d000c 	add	r0, sp, #12
    ad6c:	e880000e 	stm	r0, {r1, r2, r3}
    ad70:	e5943050 	ldr	r3, [r4, #80]	; 0x50
    ad74:	e3530000 	cmp	r3, #0
    ad78:	0a000000 	beq	ad80 <_ZN13CScreenDevice9SetStatusE13TScreenStatus+0x24>
    ad7c:	ebfffabe 	bl	987c <EnterCritical>
    ad80:	e594304c 	ldr	r3, [r4, #76]	; 0x4c
    ad84:	e3530000 	cmp	r3, #0
    ad88:	1a000002 	bne	ad98 <_ZN13CScreenDevice9SetStatusE13TScreenStatus+0x3c>
    ad8c:	e59d3030 	ldr	r3, [sp, #48]	; 0x30
    ad90:	e3530000 	cmp	r3, #0
    ad94:	0a000006 	beq	adb4 <_ZN13CScreenDevice9SetStatusE13TScreenStatus+0x58>
    ad98:	e5943050 	ldr	r3, [r4, #80]	; 0x50
    ad9c:	e3530000 	cmp	r3, #0
    ada0:	03a00000 	moveq	r0, #0
    ada4:	0a00001e 	beq	ae24 <_ZN13CScreenDevice9SetStatusE13TScreenStatus+0xc8>
    ada8:	ebfffac3 	bl	98bc <LeaveCritical>
    adac:	e3a00000 	mov	r0, #0
    adb0:	ea00001b 	b	ae24 <_ZN13CScreenDevice9SetStatusE13TScreenStatus+0xc8>
    adb4:	e5940018 	ldr	r0, [r4, #24]
    adb8:	e59d100c 	ldr	r1, [sp, #12]
    adbc:	e594201c 	ldr	r2, [r4, #28]
    adc0:	eb000dad 	bl	e47c <memcpyblk>
    adc4:	e59d3010 	ldr	r3, [sp, #16]
    adc8:	e584302c 	str	r3, [r4, #44]	; 0x2c
    adcc:	e59d3014 	ldr	r3, [sp, #20]
    add0:	e5843030 	str	r3, [r4, #48]	; 0x30
    add4:	e59d3018 	ldr	r3, [sp, #24]
    add8:	e5843034 	str	r3, [r4, #52]	; 0x34
    addc:	e59d301c 	ldr	r3, [sp, #28]
    ade0:	e5843038 	str	r3, [r4, #56]	; 0x38
    ade4:	e5dd3020 	ldrb	r3, [sp, #32]
    ade8:	e5c4303c 	strb	r3, [r4, #60]	; 0x3c
    adec:	e59d3024 	ldr	r3, [sp, #36]	; 0x24
    adf0:	e5843040 	str	r3, [r4, #64]	; 0x40
    adf4:	e59d3028 	ldr	r3, [sp, #40]	; 0x28
    adf8:	e5843044 	str	r3, [r4, #68]	; 0x44
    adfc:	e59d302c 	ldr	r3, [sp, #44]	; 0x2c
    ae00:	e5843048 	str	r3, [r4, #72]	; 0x48
    ae04:	e5943050 	ldr	r3, [r4, #80]	; 0x50
    ae08:	e3530000 	cmp	r3, #0
    ae0c:	0a000000 	beq	ae14 <_ZN13CScreenDevice9SetStatusE13TScreenStatus+0xb8>
    ae10:	ebfffaa9 	bl	98bc <LeaveCritical>
    ae14:	e3a03000 	mov	r3, #0
    ae18:	ee073fba 	mcr	15, 0, r3, cr7, cr10, {5}
    ae1c:	e3a00001 	mov	r0, #1
    ae20:	eaffffff 	b	ae24 <_ZN13CScreenDevice9SetStatusE13TScreenStatus+0xc8>
    ae24:	e8bd4010 	pop	{r4, lr}
    ae28:	e28dd010 	add	sp, sp, #16
    ae2c:	e12fff1e 	bx	lr

0000ae30 <_ZN13CScreenDevice14CarriageReturnEv>:
    ae30:	e3a03000 	mov	r3, #0
    ae34:	e5803030 	str	r3, [r0, #48]	; 0x30
    ae38:	e12fff1e 	bx	lr

0000ae3c <_ZN13CScreenDevice10CursorHomeEv>:
    ae3c:	e3a03000 	mov	r3, #0
    ae40:	e5803030 	str	r3, [r0, #48]	; 0x30
    ae44:	e5803034 	str	r3, [r0, #52]	; 0x34
    ae48:	e12fff1e 	bx	lr

0000ae4c <_ZN13CScreenDevice10CursorLeftEv>:
    ae4c:	e92d4070 	push	{r4, r5, r6, lr}
    ae50:	e1a04000 	mov	r4, r0
    ae54:	e5903030 	ldr	r3, [r0, #48]	; 0x30
    ae58:	e3530000 	cmp	r3, #0
    ae5c:	0a000005 	beq	ae78 <_ZN13CScreenDevice10CursorLeftEv+0x2c>
    ae60:	e2800014 	add	r0, r0, #20
    ae64:	eb000373 	bl	bc38 <_ZNK14CCharGenerator12GetCharWidthEv>
    ae68:	e5943030 	ldr	r3, [r4, #48]	; 0x30
    ae6c:	e0600003 	rsb	r0, r0, r3
    ae70:	e5840030 	str	r0, [r4, #48]	; 0x30
    ae74:	e8bd8070 	pop	{r4, r5, r6, pc}
    ae78:	e5903034 	ldr	r3, [r0, #52]	; 0x34
    ae7c:	e3530000 	cmp	r3, #0
    ae80:	08bd8070 	popeq	{r4, r5, r6, pc}
    ae84:	e5906020 	ldr	r6, [r0, #32]
    ae88:	e2805014 	add	r5, r0, #20
    ae8c:	e1a00005 	mov	r0, r5
    ae90:	eb000368 	bl	bc38 <_ZNK14CCharGenerator12GetCharWidthEv>
    ae94:	e0600006 	rsb	r0, r0, r6
    ae98:	e5840030 	str	r0, [r4, #48]	; 0x30
    ae9c:	e1a00005 	mov	r0, r5
    aea0:	eb000366 	bl	bc40 <_ZNK14CCharGenerator13GetCharHeightEv>
    aea4:	e5943034 	ldr	r3, [r4, #52]	; 0x34
    aea8:	e0600003 	rsb	r0, r0, r3
    aeac:	e5840034 	str	r0, [r4, #52]	; 0x34
    aeb0:	e8bd8070 	pop	{r4, r5, r6, pc}

0000aeb4 <_ZN13CScreenDevice10CursorMoveEjj>:
    aeb4:	e92d40f8 	push	{r3, r4, r5, r6, r7, lr}
    aeb8:	e1a04000 	mov	r4, r0
    aebc:	e1a07001 	mov	r7, r1
    aec0:	e1a06002 	mov	r6, r2
    aec4:	e2805014 	add	r5, r0, #20
    aec8:	e1a00005 	mov	r0, r5
    aecc:	eb000359 	bl	bc38 <_ZNK14CCharGenerator12GetCharWidthEv>
    aed0:	e2466001 	sub	r6, r6, #1
    aed4:	e0060096 	mul	r6, r6, r0
    aed8:	e1a00005 	mov	r0, r5
    aedc:	eb000357 	bl	bc40 <_ZNK14CCharGenerator13GetCharHeightEv>
    aee0:	e5943020 	ldr	r3, [r4, #32]
    aee4:	e1560003 	cmp	r6, r3
    aee8:	28bd80f8 	popcs	{r3, r4, r5, r6, r7, pc}
    aeec:	e2477001 	sub	r7, r7, #1
    aef0:	e0000097 	mul	r0, r7, r0
    aef4:	e5943028 	ldr	r3, [r4, #40]	; 0x28
    aef8:	e1500003 	cmp	r0, r3
    aefc:	35846030 	strcc	r6, [r4, #48]	; 0x30
    af00:	35840034 	strcc	r0, [r4, #52]	; 0x34
    af04:	e8bd80f8 	pop	{r3, r4, r5, r6, r7, pc}

0000af08 <_ZN13CScreenDevice8CursorUpEv>:
    af08:	e92d4070 	push	{r4, r5, r6, lr}
    af0c:	e1a04000 	mov	r4, r0
    af10:	e5906034 	ldr	r6, [r0, #52]	; 0x34
    af14:	e2805014 	add	r5, r0, #20
    af18:	e1a00005 	mov	r0, r5
    af1c:	eb000347 	bl	bc40 <_ZNK14CCharGenerator13GetCharHeightEv>
    af20:	e1560000 	cmp	r6, r0
    af24:	38bd8070 	popcc	{r4, r5, r6, pc}
    af28:	e1a00005 	mov	r0, r5
    af2c:	eb000343 	bl	bc40 <_ZNK14CCharGenerator13GetCharHeightEv>
    af30:	e5943034 	ldr	r3, [r4, #52]	; 0x34
    af34:	e0600003 	rsb	r0, r0, r3
    af38:	e5840034 	str	r0, [r4, #52]	; 0x34
    af3c:	e8bd8070 	pop	{r4, r5, r6, pc}

0000af40 <_ZN13CScreenDevice11DeleteCharsEj>:
    af40:	e12fff1e 	bx	lr

0000af44 <_ZN13CScreenDevice11DeleteLinesEj>:
    af44:	e12fff1e 	bx	lr

0000af48 <_ZN13CScreenDevice11InsertLinesEj>:
    af48:	e12fff1e 	bx	lr

0000af4c <_ZN13CScreenDevice10InsertModeEi>:
    af4c:	e5801040 	str	r1, [r0, #64]	; 0x40
    af50:	e12fff1e 	bx	lr

0000af54 <_ZN13CScreenDevice13ReverseScrollEv>:
    af54:	e12fff1e 	bx	lr

0000af58 <_ZN13CScreenDevice13SetCursorModeEi>:
    af58:	e5801038 	str	r1, [r0, #56]	; 0x38
    af5c:	e12fff1e 	bx	lr

0000af60 <_ZN13CScreenDevice15SetStandoutModeEj>:
    af60:	e351001b 	cmp	r1, #27
    af64:	979ff101 	ldrls	pc, [pc, r1, lsl #2]
    af68:	ea000023 	b	affc <_ZN13CScreenDevice15SetStandoutModeEj+0x9c>
    af6c:	0000afdc 	ldrdeq	sl, [r0], -ip
    af70:	0000afe8 	andeq	sl, r0, r8, ror #31
    af74:	0000aff4 	strdeq	sl, [r0], -r4
    af78:	0000affc 	strdeq	sl, [r0], -ip
    af7c:	0000affc 	strdeq	sl, [r0], -ip
    af80:	0000affc 	strdeq	sl, [r0], -ip
    af84:	0000affc 	strdeq	sl, [r0], -ip
    af88:	0000affc 	strdeq	sl, [r0], -ip
    af8c:	0000affc 	strdeq	sl, [r0], -ip
    af90:	0000affc 	strdeq	sl, [r0], -ip
    af94:	0000affc 	strdeq	sl, [r0], -ip
    af98:	0000affc 	strdeq	sl, [r0], -ip
    af9c:	0000affc 	strdeq	sl, [r0], -ip
    afa0:	0000affc 	strdeq	sl, [r0], -ip
    afa4:	0000affc 	strdeq	sl, [r0], -ip
    afa8:	0000affc 	strdeq	sl, [r0], -ip
    afac:	0000affc 	strdeq	sl, [r0], -ip
    afb0:	0000affc 	strdeq	sl, [r0], -ip
    afb4:	0000affc 	strdeq	sl, [r0], -ip
    afb8:	0000affc 	strdeq	sl, [r0], -ip
    afbc:	0000affc 	strdeq	sl, [r0], -ip
    afc0:	0000affc 	strdeq	sl, [r0], -ip
    afc4:	0000affc 	strdeq	sl, [r0], -ip
    afc8:	0000affc 	strdeq	sl, [r0], -ip
    afcc:	0000affc 	strdeq	sl, [r0], -ip
    afd0:	0000affc 	strdeq	sl, [r0], -ip
    afd4:	0000affc 	strdeq	sl, [r0], -ip
    afd8:	0000afdc 	ldrdeq	sl, [r0], -ip
    afdc:	e3a03001 	mov	r3, #1
    afe0:	e5c0303c 	strb	r3, [r0, #60]	; 0x3c
    afe4:	e12fff1e 	bx	lr
    afe8:	e3a03002 	mov	r3, #2
    afec:	e5c0303c 	strb	r3, [r0, #60]	; 0x3c
    aff0:	e12fff1e 	bx	lr
    aff4:	e3a03003 	mov	r3, #3
    aff8:	e5c0303c 	strb	r3, [r0, #60]	; 0x3c
    affc:	e12fff1e 	bx	lr

0000b000 <_ZN13CScreenDevice6ScrollEv>:
    b000:	e92d40f8 	push	{r3, r4, r5, r6, r7, lr}
    b004:	e1a04000 	mov	r4, r0
    b008:	e2800014 	add	r0, r0, #20
    b00c:	eb00030b 	bl	bc40 <_ZNK14CCharGenerator13GetCharHeightEv>
    b010:	e5947028 	ldr	r7, [r4, #40]	; 0x28
    b014:	e5941020 	ldr	r1, [r4, #32]
    b018:	e0607007 	rsb	r7, r0, r7
    b01c:	e0070791 	mul	r7, r1, r7
    b020:	e5946018 	ldr	r6, [r4, #24]
    b024:	e1a05000 	mov	r5, r0
    b028:	e1a02007 	mov	r2, r7
    b02c:	e0216091 	mla	r1, r1, r0, r6
    b030:	e1a00006 	mov	r0, r6
    b034:	eb000d10 	bl	e47c <memcpyblk>
    b038:	e5943020 	ldr	r3, [r4, #32]
    b03c:	e1a00127 	lsr	r0, r7, #2
    b040:	e0050593 	mul	r5, r3, r5
    b044:	e1b02125 	lsrs	r2, r5, #2
    b048:	08bd80f8 	popeq	{r3, r4, r5, r6, r7, pc}
    b04c:	e0860100 	add	r0, r6, r0, lsl #2
    b050:	e1a02102 	lsl	r2, r2, #2
    b054:	e3a01000 	mov	r1, #0
    b058:	e8bd40f8 	pop	{r3, r4, r5, r6, r7, lr}
    b05c:	eafffc8f 	b	a2a0 <memset>

0000b060 <_ZN13CScreenDevice10CursorDownEv>:
    b060:	e92d4038 	push	{r3, r4, r5, lr}
    b064:	e1a04000 	mov	r4, r0
    b068:	e2805014 	add	r5, r0, #20
    b06c:	e1a00005 	mov	r0, r5
    b070:	eb0002f2 	bl	bc40 <_ZNK14CCharGenerator13GetCharHeightEv>
    b074:	e5943034 	ldr	r3, [r4, #52]	; 0x34
    b078:	e0800003 	add	r0, r0, r3
    b07c:	e5840034 	str	r0, [r4, #52]	; 0x34
    b080:	e5942028 	ldr	r2, [r4, #40]	; 0x28
    b084:	e1500002 	cmp	r0, r2
    b088:	38bd8038 	popcc	{r3, r4, r5, pc}
    b08c:	e1a00004 	mov	r0, r4
    b090:	ebffffda 	bl	b000 <_ZN13CScreenDevice6ScrollEv>
    b094:	e1a00005 	mov	r0, r5
    b098:	eb0002e8 	bl	bc40 <_ZNK14CCharGenerator13GetCharHeightEv>
    b09c:	e5943034 	ldr	r3, [r4, #52]	; 0x34
    b0a0:	e0600003 	rsb	r0, r0, r3
    b0a4:	e5840034 	str	r0, [r4, #52]	; 0x34
    b0a8:	e8bd8038 	pop	{r3, r4, r5, pc}

0000b0ac <_ZN13CScreenDevice7NewLineEv>:
    b0ac:	e92d4008 	push	{r3, lr}
    b0b0:	e3a02000 	mov	r2, #0
    b0b4:	e5802030 	str	r2, [r0, #48]	; 0x30
    b0b8:	ebffffe8 	bl	b060 <_ZN13CScreenDevice10CursorDownEv>
    b0bc:	e8bd8008 	pop	{r3, pc}

0000b0c0 <_ZN13CScreenDevice11CursorRightEv>:
    b0c0:	e92d4010 	push	{r4, lr}
    b0c4:	e1a04000 	mov	r4, r0
    b0c8:	e2800014 	add	r0, r0, #20
    b0cc:	eb0002d9 	bl	bc38 <_ZNK14CCharGenerator12GetCharWidthEv>
    b0d0:	e5943030 	ldr	r3, [r4, #48]	; 0x30
    b0d4:	e0800003 	add	r0, r0, r3
    b0d8:	e5840030 	str	r0, [r4, #48]	; 0x30
    b0dc:	e5943020 	ldr	r3, [r4, #32]
    b0e0:	e1500003 	cmp	r0, r3
    b0e4:	38bd8010 	popcc	{r4, pc}
    b0e8:	e1a00004 	mov	r0, r4
    b0ec:	ebffffee 	bl	b0ac <_ZN13CScreenDevice7NewLineEv>
    b0f0:	e8bd8010 	pop	{r4, pc}

0000b0f4 <_ZN13CScreenDevice9TabulatorEv>:
    b0f4:	e92d4038 	push	{r3, r4, r5, lr}
    b0f8:	e1a04000 	mov	r4, r0
    b0fc:	e2800014 	add	r0, r0, #20
    b100:	eb0002cc 	bl	bc38 <_ZNK14CCharGenerator12GetCharWidthEv>
    b104:	e1a05180 	lsl	r5, r0, #3
    b108:	e5940030 	ldr	r0, [r4, #48]	; 0x30
    b10c:	e0850000 	add	r0, r5, r0
    b110:	e1a01005 	mov	r1, r5
    b114:	ebfff8d0 	bl	945c <__aeabi_uidiv>
    b118:	e0000095 	mul	r0, r5, r0
    b11c:	e5840030 	str	r0, [r4, #48]	; 0x30
    b120:	e5943020 	ldr	r3, [r4, #32]
    b124:	e1500003 	cmp	r0, r3
    b128:	38bd8038 	popcc	{r3, r4, r5, pc}
    b12c:	e1a00004 	mov	r0, r4
    b130:	ebffffdd 	bl	b0ac <_ZN13CScreenDevice7NewLineEv>
    b134:	e8bd8038 	pop	{r3, r4, r5, pc}

0000b138 <_ZN13CScreenDevice8SetPixelEjjh>:
    b138:	e52d4004 	push	{r4}		; (str r4, [sp, #-4]!)
    b13c:	e590c020 	ldr	ip, [r0, #32]
    b140:	e15c0001 	cmp	ip, r1
    b144:	9a000004 	bls	b15c <_ZN13CScreenDevice8SetPixelEjjh+0x24>
    b148:	e5904024 	ldr	r4, [r0, #36]	; 0x24
    b14c:	e1540002 	cmp	r4, r2
    b150:	85900018 	ldrhi	r0, [r0, #24]
    b154:	802c029c 	mlahi	ip, ip, r2, r0
    b158:	87cc3001 	strbhi	r3, [ip, r1]
    b15c:	e49d4004 	pop	{r4}		; (ldr r4, [sp], #4)
    b160:	e12fff1e 	bx	lr

0000b164 <_ZN13CScreenDevice11DisplayCharEcjjh>:
    b164:	e92d4ff0 	push	{r4, r5, r6, r7, r8, r9, sl, fp, lr}
    b168:	e24dd00c 	sub	sp, sp, #12
    b16c:	e1a09000 	mov	r9, r0
    b170:	e1a0b001 	mov	fp, r1
    b174:	e1a0a002 	mov	sl, r2
    b178:	e58d3004 	str	r3, [sp, #4]
    b17c:	e5dd3030 	ldrb	r3, [sp, #48]	; 0x30
    b180:	e58d3000 	str	r3, [sp]
    b184:	e3a07000 	mov	r7, #0
    b188:	e2805014 	add	r5, r0, #20
    b18c:	ea000014 	b	b1e4 <_ZN13CScreenDevice11DisplayCharEcjjh+0x80>
    b190:	e084600a 	add	r6, r4, sl
    b194:	e1a00005 	mov	r0, r5
    b198:	e1a0100b 	mov	r1, fp
    b19c:	e1a02004 	mov	r2, r4
    b1a0:	e1a03007 	mov	r3, r7
    b1a4:	eb0002a9 	bl	bc50 <_ZNK14CCharGenerator8GetPixelEcjj>
    b1a8:	e2503000 	subs	r3, r0, #0
    b1ac:	e1a00009 	mov	r0, r9
    b1b0:	e1a01006 	mov	r1, r6
    b1b4:	e1a02008 	mov	r2, r8
    b1b8:	e59dc000 	ldr	ip, [sp]
    b1bc:	e3530000 	cmp	r3, #0
    b1c0:	03a0c000 	moveq	ip, #0
    b1c4:	e1a0300c 	mov	r3, ip
    b1c8:	ebffffda 	bl	b138 <_ZN13CScreenDevice8SetPixelEjjh>
    b1cc:	e2844001 	add	r4, r4, #1
    b1d0:	e1a00005 	mov	r0, r5
    b1d4:	eb000297 	bl	bc38 <_ZNK14CCharGenerator12GetCharWidthEv>
    b1d8:	e1540000 	cmp	r4, r0
    b1dc:	3affffeb 	bcc	b190 <_ZN13CScreenDevice11DisplayCharEcjjh+0x2c>
    b1e0:	e2877001 	add	r7, r7, #1
    b1e4:	e1a00005 	mov	r0, r5
    b1e8:	eb000294 	bl	bc40 <_ZNK14CCharGenerator13GetCharHeightEv>
    b1ec:	e1570000 	cmp	r7, r0
    b1f0:	33a04000 	movcc	r4, #0
    b1f4:	359d3004 	ldrcc	r3, [sp, #4]
    b1f8:	30878003 	addcc	r8, r7, r3
    b1fc:	3afffff3 	bcc	b1d0 <_ZN13CScreenDevice11DisplayCharEcjjh+0x6c>
    b200:	e28dd00c 	add	sp, sp, #12
    b204:	e8bd8ff0 	pop	{r4, r5, r6, r7, r8, r9, sl, fp, pc}

0000b208 <_ZN13CScreenDevice11DisplayCharEc>:
    b208:	e92d4010 	push	{r4, lr}
    b20c:	e24dd008 	sub	sp, sp, #8
    b210:	e1a04000 	mov	r4, r0
    b214:	e6ef3071 	uxtb	r3, r1
    b218:	e353001f 	cmp	r3, #31
    b21c:	9a000007 	bls	b240 <_ZN13CScreenDevice11DisplayCharEc+0x38>
    b220:	e5902030 	ldr	r2, [r0, #48]	; 0x30
    b224:	e5903034 	ldr	r3, [r0, #52]	; 0x34
    b228:	e5d0003c 	ldrb	r0, [r0, #60]	; 0x3c
    b22c:	e58d0000 	str	r0, [sp]
    b230:	e1a00004 	mov	r0, r4
    b234:	ebffffca 	bl	b164 <_ZN13CScreenDevice11DisplayCharEcjjh>
    b238:	e1a00004 	mov	r0, r4
    b23c:	ebffff9f 	bl	b0c0 <_ZN13CScreenDevice11CursorRightEv>
    b240:	e28dd008 	add	sp, sp, #8
    b244:	e8bd8010 	pop	{r4, pc}

0000b248 <_ZN13CScreenDevice9EraseCharEjj>:
    b248:	e92d4ff8 	push	{r3, r4, r5, r6, r7, r8, r9, sl, fp, lr}
    b24c:	e1a08000 	mov	r8, r0
    b250:	e1a09001 	mov	r9, r1
    b254:	e1a0b002 	mov	fp, r2
    b258:	e3a0a000 	mov	sl, #0
    b25c:	e2805014 	add	r5, r0, #20
    b260:	e1a0600a 	mov	r6, sl
    b264:	ea00000a 	b	b294 <_ZN13CScreenDevice9EraseCharEjj+0x4c>
    b268:	e1a00008 	mov	r0, r8
    b26c:	e0841009 	add	r1, r4, r9
    b270:	e1a02007 	mov	r2, r7
    b274:	e1a03006 	mov	r3, r6
    b278:	ebffffae 	bl	b138 <_ZN13CScreenDevice8SetPixelEjjh>
    b27c:	e2844001 	add	r4, r4, #1
    b280:	e1a00005 	mov	r0, r5
    b284:	eb00026b 	bl	bc38 <_ZNK14CCharGenerator12GetCharWidthEv>
    b288:	e1540000 	cmp	r4, r0
    b28c:	3afffff5 	bcc	b268 <_ZN13CScreenDevice9EraseCharEjj+0x20>
    b290:	e28aa001 	add	sl, sl, #1
    b294:	e1a00005 	mov	r0, r5
    b298:	eb000268 	bl	bc40 <_ZNK14CCharGenerator13GetCharHeightEv>
    b29c:	e15a0000 	cmp	sl, r0
    b2a0:	28bd8ff8 	popcs	{r3, r4, r5, r6, r7, r8, r9, sl, fp, pc}
    b2a4:	e1a04006 	mov	r4, r6
    b2a8:	e08a700b 	add	r7, sl, fp
    b2ac:	eafffff3 	b	b280 <_ZN13CScreenDevice9EraseCharEjj+0x38>

0000b2b0 <_ZN13CScreenDevice12ClearLineEndEv>:
    b2b0:	e92d4070 	push	{r4, r5, r6, lr}
    b2b4:	e1a05000 	mov	r5, r0
    b2b8:	e5904030 	ldr	r4, [r0, #48]	; 0x30
    b2bc:	e5903020 	ldr	r3, [r0, #32]
    b2c0:	e1540003 	cmp	r4, r3
    b2c4:	28bd8070 	popcs	{r4, r5, r6, pc}
    b2c8:	e2806014 	add	r6, r0, #20
    b2cc:	e1a00005 	mov	r0, r5
    b2d0:	e1a01004 	mov	r1, r4
    b2d4:	e5952034 	ldr	r2, [r5, #52]	; 0x34
    b2d8:	ebffffda 	bl	b248 <_ZN13CScreenDevice9EraseCharEjj>
    b2dc:	e1a00006 	mov	r0, r6
    b2e0:	eb000254 	bl	bc38 <_ZNK14CCharGenerator12GetCharWidthEv>
    b2e4:	e0844000 	add	r4, r4, r0
    b2e8:	e5953020 	ldr	r3, [r5, #32]
    b2ec:	e1530004 	cmp	r3, r4
    b2f0:	8afffff5 	bhi	b2cc <_ZN13CScreenDevice12ClearLineEndEv+0x1c>
    b2f4:	e8bd8070 	pop	{r4, r5, r6, pc}

0000b2f8 <_ZN13CScreenDevice15ClearDisplayEndEv>:
    b2f8:	e92d4038 	push	{r3, r4, r5, lr}
    b2fc:	e1a04000 	mov	r4, r0
    b300:	ebffffea 	bl	b2b0 <_ZN13CScreenDevice12ClearLineEndEv>
    b304:	e2840014 	add	r0, r4, #20
    b308:	e5945034 	ldr	r5, [r4, #52]	; 0x34
    b30c:	eb00024b 	bl	bc40 <_ZNK14CCharGenerator13GetCharHeightEv>
    b310:	e5942020 	ldr	r2, [r4, #32]
    b314:	e0800005 	add	r0, r0, r5
    b318:	e0030092 	mul	r3, r2, r0
    b31c:	e594201c 	ldr	r2, [r4, #28]
    b320:	e5940018 	ldr	r0, [r4, #24]
    b324:	e0522003 	subs	r2, r2, r3
    b328:	08bd8038 	popeq	{r3, r4, r5, pc}
    b32c:	e0800003 	add	r0, r0, r3
    b330:	e3a01000 	mov	r1, #0
    b334:	e8bd4038 	pop	{r3, r4, r5, lr}
    b338:	eafffbd8 	b	a2a0 <memset>

0000b33c <_ZN13CScreenDevice10EraseCharsEj>:
    b33c:	e92d40f8 	push	{r3, r4, r5, r6, r7, lr}
    b340:	e1a05000 	mov	r5, r0
    b344:	e2514000 	subs	r4, r1, #0
    b348:	08bd80f8 	popeq	{r3, r4, r5, r6, r7, pc}
    b34c:	e5906030 	ldr	r6, [r0, #48]	; 0x30
    b350:	e2807014 	add	r7, r0, #20
    b354:	e1a00007 	mov	r0, r7
    b358:	eb000236 	bl	bc38 <_ZNK14CCharGenerator12GetCharWidthEv>
    b35c:	e0206094 	mla	r0, r4, r0, r6
    b360:	e5953020 	ldr	r3, [r5, #32]
    b364:	e1500003 	cmp	r0, r3
    b368:	31a06000 	movcc	r6, r0
    b36c:	21a06003 	movcs	r6, r3
    b370:	e5954030 	ldr	r4, [r5, #48]	; 0x30
    b374:	e1540006 	cmp	r4, r6
    b378:	28bd80f8 	popcs	{r3, r4, r5, r6, r7, pc}
    b37c:	e1a00005 	mov	r0, r5
    b380:	e1a01004 	mov	r1, r4
    b384:	e5952034 	ldr	r2, [r5, #52]	; 0x34
    b388:	ebffffae 	bl	b248 <_ZN13CScreenDevice9EraseCharEjj>
    b38c:	e1a00007 	mov	r0, r7
    b390:	eb000228 	bl	bc38 <_ZNK14CCharGenerator12GetCharWidthEv>
    b394:	e0844000 	add	r4, r4, r0
    b398:	e1540006 	cmp	r4, r6
    b39c:	3afffff6 	bcc	b37c <_ZN13CScreenDevice10EraseCharsEj+0x40>
    b3a0:	e8bd80f8 	pop	{r3, r4, r5, r6, r7, pc}

0000b3a4 <_ZN13CScreenDevice5WriteEc>:
    b3a4:	e92d4010 	push	{r4, lr}
    b3a8:	e1a04000 	mov	r4, r0
    b3ac:	e590302c 	ldr	r3, [r0, #44]	; 0x2c
    b3b0:	e3530007 	cmp	r3, #7
    b3b4:	979ff103 	ldrls	pc, [pc, r3, lsl #2]
    b3b8:	ea00012a 	b	b868 <_ZN13CScreenDevice5WriteEc+0x4c4>
    b3bc:	0000b3dc 	ldrdeq	fp, [r0], -ip
    b3c0:	0000b474 	andeq	fp, r0, r4, ror r4
    b3c4:	0000b4a8 	andeq	fp, r0, r8, lsr #9
    b3c8:	0000b5b8 			; <UNDEFINED> instruction: 0x0000b5b8
    b3cc:	0000b774 	andeq	fp, r0, r4, ror r7
    b3d0:	0000b750 	andeq	fp, r0, r0, asr r7
    b3d4:	0000b798 	muleq	r0, r8, r7
    b3d8:	0000b7f4 	strdeq	fp, [r0], -r4
    b3dc:	e2413008 	sub	r3, r1, #8
    b3e0:	e3530013 	cmp	r3, #19
    b3e4:	979ff103 	ldrls	pc, [pc, r3, lsl #2]
    b3e8:	ea00001f 	b	b46c <_ZN13CScreenDevice5WriteEc+0xc8>
    b3ec:	0000b43c 	andeq	fp, r0, ip, lsr r4
    b3f0:	0000b444 	andeq	fp, r0, r4, asr #8
    b3f4:	0000b44c 	andeq	fp, r0, ip, asr #8
    b3f8:	0000b46c 	andeq	fp, r0, ip, ror #8
    b3fc:	0000b46c 	andeq	fp, r0, ip, ror #8
    b400:	0000b454 	andeq	fp, r0, r4, asr r4
    b404:	0000b46c 	andeq	fp, r0, ip, ror #8
    b408:	0000b46c 	andeq	fp, r0, ip, ror #8
    b40c:	0000b46c 	andeq	fp, r0, ip, ror #8
    b410:	0000b46c 	andeq	fp, r0, ip, ror #8
    b414:	0000b46c 	andeq	fp, r0, ip, ror #8
    b418:	0000b46c 	andeq	fp, r0, ip, ror #8
    b41c:	0000b46c 	andeq	fp, r0, ip, ror #8
    b420:	0000b46c 	andeq	fp, r0, ip, ror #8
    b424:	0000b46c 	andeq	fp, r0, ip, ror #8
    b428:	0000b46c 	andeq	fp, r0, ip, ror #8
    b42c:	0000b46c 	andeq	fp, r0, ip, ror #8
    b430:	0000b46c 	andeq	fp, r0, ip, ror #8
    b434:	0000b46c 	andeq	fp, r0, ip, ror #8
    b438:	0000b460 	andeq	fp, r0, r0, ror #8
    b43c:	ebfffe82 	bl	ae4c <_ZN13CScreenDevice10CursorLeftEv>
    b440:	e8bd8010 	pop	{r4, pc}
    b444:	ebffff2a 	bl	b0f4 <_ZN13CScreenDevice9TabulatorEv>
    b448:	e8bd8010 	pop	{r4, pc}
    b44c:	ebffff16 	bl	b0ac <_ZN13CScreenDevice7NewLineEv>
    b450:	e8bd8010 	pop	{r4, pc}
    b454:	e3a03000 	mov	r3, #0
    b458:	e5803030 	str	r3, [r0, #48]	; 0x30
    b45c:	e8bd8010 	pop	{r4, pc}
    b460:	e3a03001 	mov	r3, #1
    b464:	e580302c 	str	r3, [r0, #44]	; 0x2c
    b468:	e8bd8010 	pop	{r4, pc}
    b46c:	ebffff65 	bl	b208 <_ZN13CScreenDevice11DisplayCharEc>
    b470:	e8bd8010 	pop	{r4, pc}
    b474:	e351004d 	cmp	r1, #77	; 0x4d
    b478:	0a000004 	beq	b490 <_ZN13CScreenDevice5WriteEc+0xec>
    b47c:	e351005b 	cmp	r1, #91	; 0x5b
    b480:	03a03002 	moveq	r3, #2
    b484:	0580302c 	streq	r3, [r0, #44]	; 0x2c
    b488:	08bd8010 	popeq	{r4, pc}
    b48c:	ea000002 	b	b49c <_ZN13CScreenDevice5WriteEc+0xf8>
    b490:	e3a03000 	mov	r3, #0
    b494:	e580302c 	str	r3, [r0, #44]	; 0x2c
    b498:	e8bd8010 	pop	{r4, pc}
    b49c:	e3a03000 	mov	r3, #0
    b4a0:	e580302c 	str	r3, [r0, #44]	; 0x2c
    b4a4:	e8bd8010 	pop	{r4, pc}
    b4a8:	e241303f 	sub	r3, r1, #63	; 0x3f
    b4ac:	e3530011 	cmp	r3, #17
    b4b0:	979ff103 	ldrls	pc, [pc, r3, lsl #2]
    b4b4:	ea000036 	b	b594 <_ZN13CScreenDevice5WriteEc+0x1f0>
    b4b8:	0000b500 	andeq	fp, r0, r0, lsl #10
    b4bc:	0000b594 	muleq	r0, r4, r5
    b4c0:	0000b50c 	andeq	fp, r0, ip, lsl #10
    b4c4:	0000b51c 	andeq	fp, r0, ip, lsl r5
    b4c8:	0000b52c 	andeq	fp, r0, ip, lsr #10
    b4cc:	0000b594 	muleq	r0, r4, r5
    b4d0:	0000b594 	muleq	r0, r4, r5
    b4d4:	0000b594 	muleq	r0, r4, r5
    b4d8:	0000b594 	muleq	r0, r4, r5
    b4dc:	0000b53c 	andeq	fp, r0, ip, lsr r5
    b4e0:	0000b594 	muleq	r0, r4, r5
    b4e4:	0000b550 	andeq	fp, r0, r0, asr r5
    b4e8:	0000b560 	andeq	fp, r0, r0, ror #10
    b4ec:	0000b570 	andeq	fp, r0, r0, ror r5
    b4f0:	0000b57c 	andeq	fp, r0, ip, ror r5
    b4f4:	0000b594 	muleq	r0, r4, r5
    b4f8:	0000b594 	muleq	r0, r4, r5
    b4fc:	0000b588 	andeq	fp, r0, r8, lsl #11
    b500:	e3a03004 	mov	r3, #4
    b504:	e580302c 	str	r3, [r0, #44]	; 0x2c
    b508:	e8bd8010 	pop	{r4, pc}
    b50c:	ebfffe7d 	bl	af08 <_ZN13CScreenDevice8CursorUpEv>
    b510:	e3a03000 	mov	r3, #0
    b514:	e584302c 	str	r3, [r4, #44]	; 0x2c
    b518:	e8bd8010 	pop	{r4, pc}
    b51c:	ebfffecf 	bl	b060 <_ZN13CScreenDevice10CursorDownEv>
    b520:	e3a03000 	mov	r3, #0
    b524:	e584302c 	str	r3, [r4, #44]	; 0x2c
    b528:	e8bd8010 	pop	{r4, pc}
    b52c:	ebfffee3 	bl	b0c0 <_ZN13CScreenDevice11CursorRightEv>
    b530:	e3a03000 	mov	r3, #0
    b534:	e584302c 	str	r3, [r4, #44]	; 0x2c
    b538:	e8bd8010 	pop	{r4, pc}
    b53c:	e3a03000 	mov	r3, #0
    b540:	e5803030 	str	r3, [r0, #48]	; 0x30
    b544:	e5803034 	str	r3, [r0, #52]	; 0x34
    b548:	e580302c 	str	r3, [r0, #44]	; 0x2c
    b54c:	e8bd8010 	pop	{r4, pc}
    b550:	ebffff68 	bl	b2f8 <_ZN13CScreenDevice15ClearDisplayEndEv>
    b554:	e3a03000 	mov	r3, #0
    b558:	e584302c 	str	r3, [r4, #44]	; 0x2c
    b55c:	e8bd8010 	pop	{r4, pc}
    b560:	ebffff52 	bl	b2b0 <_ZN13CScreenDevice12ClearLineEndEv>
    b564:	e3a03000 	mov	r3, #0
    b568:	e584302c 	str	r3, [r4, #44]	; 0x2c
    b56c:	e8bd8010 	pop	{r4, pc}
    b570:	e3a03000 	mov	r3, #0
    b574:	e580302c 	str	r3, [r0, #44]	; 0x2c
    b578:	e8bd8010 	pop	{r4, pc}
    b57c:	e3a03000 	mov	r3, #0
    b580:	e580302c 	str	r3, [r0, #44]	; 0x2c
    b584:	e8bd8010 	pop	{r4, pc}
    b588:	e3a03000 	mov	r3, #0
    b58c:	e580302c 	str	r3, [r0, #44]	; 0x2c
    b590:	e8bd8010 	pop	{r4, pc}
    b594:	e2413030 	sub	r3, r1, #48	; 0x30
    b598:	e6ef3073 	uxtb	r3, r3
    b59c:	e3530009 	cmp	r3, #9
    b5a0:	92411030 	subls	r1, r1, #48	; 0x30
    b5a4:	95801044 	strls	r1, [r0, #68]	; 0x44
    b5a8:	93a03003 	movls	r3, #3
    b5ac:	83a03000 	movhi	r3, #0
    b5b0:	e580302c 	str	r3, [r0, #44]	; 0x2c
    b5b4:	e8bd8010 	pop	{r4, pc}
    b5b8:	e241303b 	sub	r3, r1, #59	; 0x3b
    b5bc:	e3530032 	cmp	r3, #50	; 0x32
    b5c0:	979ff103 	ldrls	pc, [pc, r3, lsl #2]
    b5c4:	ea000052 	b	b714 <_ZN13CScreenDevice5WriteEc+0x370>
    b5c8:	0000b694 	muleq	r0, r4, r6
    b5cc:	0000b714 	andeq	fp, r0, r4, lsl r7
    b5d0:	0000b714 	andeq	fp, r0, r4, lsl r7
    b5d4:	0000b714 	andeq	fp, r0, r4, lsl r7
    b5d8:	0000b714 	andeq	fp, r0, r4, lsl r7
    b5dc:	0000b714 	andeq	fp, r0, r4, lsl r7
    b5e0:	0000b714 	andeq	fp, r0, r4, lsl r7
    b5e4:	0000b714 	andeq	fp, r0, r4, lsl r7
    b5e8:	0000b714 	andeq	fp, r0, r4, lsl r7
    b5ec:	0000b714 	andeq	fp, r0, r4, lsl r7
    b5f0:	0000b714 	andeq	fp, r0, r4, lsl r7
    b5f4:	0000b714 	andeq	fp, r0, r4, lsl r7
    b5f8:	0000b714 	andeq	fp, r0, r4, lsl r7
    b5fc:	0000b714 	andeq	fp, r0, r4, lsl r7
    b600:	0000b714 	andeq	fp, r0, r4, lsl r7
    b604:	0000b714 	andeq	fp, r0, r4, lsl r7
    b608:	0000b714 	andeq	fp, r0, r4, lsl r7
    b60c:	0000b6a0 	andeq	fp, r0, r0, lsr #13
    b610:	0000b6ac 	andeq	fp, r0, ip, lsr #13
    b614:	0000b714 	andeq	fp, r0, r4, lsl r7
    b618:	0000b714 	andeq	fp, r0, r4, lsl r7
    b61c:	0000b6b8 			; <UNDEFINED> instruction: 0x0000b6b8
    b620:	0000b714 	andeq	fp, r0, r4, lsl r7
    b624:	0000b714 	andeq	fp, r0, r4, lsl r7
    b628:	0000b714 	andeq	fp, r0, r4, lsl r7
    b62c:	0000b714 	andeq	fp, r0, r4, lsl r7
    b630:	0000b714 	andeq	fp, r0, r4, lsl r7
    b634:	0000b714 	andeq	fp, r0, r4, lsl r7
    b638:	0000b714 	andeq	fp, r0, r4, lsl r7
    b63c:	0000b6c4 	andeq	fp, r0, r4, asr #13
    b640:	0000b714 	andeq	fp, r0, r4, lsl r7
    b644:	0000b714 	andeq	fp, r0, r4, lsl r7
    b648:	0000b714 	andeq	fp, r0, r4, lsl r7
    b64c:	0000b714 	andeq	fp, r0, r4, lsl r7
    b650:	0000b714 	andeq	fp, r0, r4, lsl r7
    b654:	0000b714 	andeq	fp, r0, r4, lsl r7
    b658:	0000b714 	andeq	fp, r0, r4, lsl r7
    b65c:	0000b714 	andeq	fp, r0, r4, lsl r7
    b660:	0000b714 	andeq	fp, r0, r4, lsl r7
    b664:	0000b714 	andeq	fp, r0, r4, lsl r7
    b668:	0000b714 	andeq	fp, r0, r4, lsl r7
    b66c:	0000b714 	andeq	fp, r0, r4, lsl r7
    b670:	0000b714 	andeq	fp, r0, r4, lsl r7
    b674:	0000b714 	andeq	fp, r0, r4, lsl r7
    b678:	0000b714 	andeq	fp, r0, r4, lsl r7
    b67c:	0000b6d8 	ldrdeq	fp, [r0], -r8
    b680:	0000b714 	andeq	fp, r0, r4, lsl r7
    b684:	0000b714 	andeq	fp, r0, r4, lsl r7
    b688:	0000b714 	andeq	fp, r0, r4, lsl r7
    b68c:	0000b6d8 	ldrdeq	fp, [r0], -r8
    b690:	0000b700 	andeq	fp, r0, r0, lsl #14
    b694:	e3a03005 	mov	r3, #5
    b698:	e580302c 	str	r3, [r0, #44]	; 0x2c
    b69c:	e8bd8010 	pop	{r4, pc}
    b6a0:	e3a03000 	mov	r3, #0
    b6a4:	e580302c 	str	r3, [r0, #44]	; 0x2c
    b6a8:	e8bd8010 	pop	{r4, pc}
    b6ac:	e3a03000 	mov	r3, #0
    b6b0:	e580302c 	str	r3, [r0, #44]	; 0x2c
    b6b4:	e8bd8010 	pop	{r4, pc}
    b6b8:	e3a03000 	mov	r3, #0
    b6bc:	e580302c 	str	r3, [r0, #44]	; 0x2c
    b6c0:	e8bd8010 	pop	{r4, pc}
    b6c4:	e5941044 	ldr	r1, [r4, #68]	; 0x44
    b6c8:	ebffff1b 	bl	b33c <_ZN13CScreenDevice10EraseCharsEj>
    b6cc:	e3a03000 	mov	r3, #0
    b6d0:	e584302c 	str	r3, [r4, #44]	; 0x2c
    b6d4:	e8bd8010 	pop	{r4, pc}
    b6d8:	e5903044 	ldr	r3, [r0, #68]	; 0x44
    b6dc:	e3530004 	cmp	r3, #4
    b6e0:	1a000003 	bne	b6f4 <_ZN13CScreenDevice5WriteEc+0x350>
    b6e4:	e3510068 	cmp	r1, #104	; 0x68
    b6e8:	13a01000 	movne	r1, #0
    b6ec:	03a01001 	moveq	r1, #1
    b6f0:	e5801040 	str	r1, [r0, #64]	; 0x40
    b6f4:	e3a03000 	mov	r3, #0
    b6f8:	e584302c 	str	r3, [r4, #44]	; 0x2c
    b6fc:	e8bd8010 	pop	{r4, pc}
    b700:	e5941044 	ldr	r1, [r4, #68]	; 0x44
    b704:	ebfffe15 	bl	af60 <_ZN13CScreenDevice15SetStandoutModeEj>
    b708:	e3a03000 	mov	r3, #0
    b70c:	e584302c 	str	r3, [r4, #44]	; 0x2c
    b710:	e8bd8010 	pop	{r4, pc}
    b714:	e2413030 	sub	r3, r1, #48	; 0x30
    b718:	e6ef3073 	uxtb	r3, r3
    b71c:	e3530009 	cmp	r3, #9
    b720:	83a03000 	movhi	r3, #0
    b724:	8580302c 	strhi	r3, [r0, #44]	; 0x2c
    b728:	88bd8010 	pophi	{r4, pc}
    b72c:	e5903044 	ldr	r3, [r0, #68]	; 0x44
    b730:	e0833103 	add	r3, r3, r3, lsl #2
    b734:	e0813083 	add	r3, r1, r3, lsl #1
    b738:	e2433030 	sub	r3, r3, #48	; 0x30
    b73c:	e5803044 	str	r3, [r0, #68]	; 0x44
    b740:	e3530063 	cmp	r3, #99	; 0x63
    b744:	83a03000 	movhi	r3, #0
    b748:	8580302c 	strhi	r3, [r0, #44]	; 0x2c
    b74c:	e8bd8010 	pop	{r4, pc}
    b750:	e2413030 	sub	r3, r1, #48	; 0x30
    b754:	e6ef3073 	uxtb	r3, r3
    b758:	e3530009 	cmp	r3, #9
    b75c:	92411030 	subls	r1, r1, #48	; 0x30
    b760:	95801048 	strls	r1, [r0, #72]	; 0x48
    b764:	93a03006 	movls	r3, #6
    b768:	83a03000 	movhi	r3, #0
    b76c:	e580302c 	str	r3, [r0, #44]	; 0x2c
    b770:	e8bd8010 	pop	{r4, pc}
    b774:	e2413030 	sub	r3, r1, #48	; 0x30
    b778:	e6ef3073 	uxtb	r3, r3
    b77c:	e3530009 	cmp	r3, #9
    b780:	92411030 	subls	r1, r1, #48	; 0x30
    b784:	95801044 	strls	r1, [r0, #68]	; 0x44
    b788:	93a03007 	movls	r3, #7
    b78c:	83a03000 	movhi	r3, #0
    b790:	e580302c 	str	r3, [r0, #44]	; 0x2c
    b794:	e8bd8010 	pop	{r4, pc}
    b798:	e3510048 	cmp	r1, #72	; 0x48
    b79c:	1a000005 	bne	b7b8 <_ZN13CScreenDevice5WriteEc+0x414>
    b7a0:	e5941044 	ldr	r1, [r4, #68]	; 0x44
    b7a4:	e5942048 	ldr	r2, [r4, #72]	; 0x48
    b7a8:	ebfffdc1 	bl	aeb4 <_ZN13CScreenDevice10CursorMoveEjj>
    b7ac:	e3a03000 	mov	r3, #0
    b7b0:	e584302c 	str	r3, [r4, #44]	; 0x2c
    b7b4:	e8bd8010 	pop	{r4, pc}
    b7b8:	e2413030 	sub	r3, r1, #48	; 0x30
    b7bc:	e6ef3073 	uxtb	r3, r3
    b7c0:	e3530009 	cmp	r3, #9
    b7c4:	83a03000 	movhi	r3, #0
    b7c8:	8580302c 	strhi	r3, [r0, #44]	; 0x2c
    b7cc:	88bd8010 	pophi	{r4, pc}
    b7d0:	e5903048 	ldr	r3, [r0, #72]	; 0x48
    b7d4:	e0833103 	add	r3, r3, r3, lsl #2
    b7d8:	e0811083 	add	r1, r1, r3, lsl #1
    b7dc:	e2411030 	sub	r1, r1, #48	; 0x30
    b7e0:	e5801048 	str	r1, [r0, #72]	; 0x48
    b7e4:	e35100c7 	cmp	r1, #199	; 0xc7
    b7e8:	83a03000 	movhi	r3, #0
    b7ec:	8580302c 	strhi	r3, [r0, #44]	; 0x2c
    b7f0:	e8bd8010 	pop	{r4, pc}
    b7f4:	e3510068 	cmp	r1, #104	; 0x68
    b7f8:	0a000001 	beq	b804 <_ZN13CScreenDevice5WriteEc+0x460>
    b7fc:	e351006c 	cmp	r1, #108	; 0x6c
    b800:	1a000009 	bne	b82c <_ZN13CScreenDevice5WriteEc+0x488>
    b804:	e5943044 	ldr	r3, [r4, #68]	; 0x44
    b808:	e3530019 	cmp	r3, #25
    b80c:	1a000003 	bne	b820 <_ZN13CScreenDevice5WriteEc+0x47c>
    b810:	e3510068 	cmp	r1, #104	; 0x68
    b814:	13a01000 	movne	r1, #0
    b818:	03a01001 	moveq	r1, #1
    b81c:	e5841038 	str	r1, [r4, #56]	; 0x38
    b820:	e3a03000 	mov	r3, #0
    b824:	e584302c 	str	r3, [r4, #44]	; 0x2c
    b828:	e8bd8010 	pop	{r4, pc}
    b82c:	e2413030 	sub	r3, r1, #48	; 0x30
    b830:	e6ef3073 	uxtb	r3, r3
    b834:	e3530009 	cmp	r3, #9
    b838:	83a03000 	movhi	r3, #0
    b83c:	8580302c 	strhi	r3, [r0, #44]	; 0x2c
    b840:	88bd8010 	pophi	{r4, pc}
    b844:	e5903044 	ldr	r3, [r0, #68]	; 0x44
    b848:	e0833103 	add	r3, r3, r3, lsl #2
    b84c:	e0811083 	add	r1, r1, r3, lsl #1
    b850:	e2411030 	sub	r1, r1, #48	; 0x30
    b854:	e5801044 	str	r1, [r0, #68]	; 0x44
    b858:	e3510063 	cmp	r1, #99	; 0x63
    b85c:	83a03000 	movhi	r3, #0
    b860:	8580302c 	strhi	r3, [r0, #44]	; 0x2c
    b864:	e8bd8010 	pop	{r4, pc}
    b868:	e3a03000 	mov	r3, #0
    b86c:	e580302c 	str	r3, [r0, #44]	; 0x2c
    b870:	e8bd8010 	pop	{r4, pc}

0000b874 <_ZN13CScreenDevice8GetPixelEjj>:
    b874:	e5903020 	ldr	r3, [r0, #32]
    b878:	e1530001 	cmp	r3, r1
    b87c:	9a000006 	bls	b89c <_ZN13CScreenDevice8GetPixelEjj+0x28>
    b880:	e590c024 	ldr	ip, [r0, #36]	; 0x24
    b884:	e15c0002 	cmp	ip, r2
    b888:	9a000005 	bls	b8a4 <_ZN13CScreenDevice8GetPixelEjj+0x30>
    b88c:	e5900018 	ldr	r0, [r0, #24]
    b890:	e0230293 	mla	r3, r3, r2, r0
    b894:	e7d30001 	ldrb	r0, [r3, r1]
    b898:	e12fff1e 	bx	lr
    b89c:	e3a00000 	mov	r0, #0
    b8a0:	e12fff1e 	bx	lr
    b8a4:	e3a00000 	mov	r0, #0
    b8a8:	e12fff1e 	bx	lr

0000b8ac <_ZN13CScreenDevice12InvertCursorEv>:
    b8ac:	e92d47f0 	push	{r4, r5, r6, r7, r8, r9, sl, lr}
    b8b0:	e1a04000 	mov	r4, r0
    b8b4:	e5903038 	ldr	r3, [r0, #56]	; 0x38
    b8b8:	e3530000 	cmp	r3, #0
    b8bc:	08bd87f0 	popeq	{r4, r5, r6, r7, r8, r9, sl, pc}
    b8c0:	e2809014 	add	r9, r0, #20
    b8c4:	e1a00009 	mov	r0, r9
    b8c8:	eb0000de 	bl	bc48 <_ZNK14CCharGenerator12GetUnderlineEv>
    b8cc:	e1a08000 	mov	r8, r0
    b8d0:	e3a0a000 	mov	sl, #0
    b8d4:	ea000014 	b	b92c <_ZN13CScreenDevice12InvertCursorEv+0x80>
    b8d8:	e5947030 	ldr	r7, [r4, #48]	; 0x30
    b8dc:	e0857007 	add	r7, r5, r7
    b8e0:	e5946034 	ldr	r6, [r4, #52]	; 0x34
    b8e4:	e0886006 	add	r6, r8, r6
    b8e8:	e1a00004 	mov	r0, r4
    b8ec:	e1a01007 	mov	r1, r7
    b8f0:	e1a02006 	mov	r2, r6
    b8f4:	ebffffde 	bl	b874 <_ZN13CScreenDevice8GetPixelEjj>
    b8f8:	e3500000 	cmp	r0, #0
    b8fc:	e1a00004 	mov	r0, r4
    b900:	e1a01007 	mov	r1, r7
    b904:	e1a02006 	mov	r2, r6
    b908:	05d4303c 	ldrbeq	r3, [r4, #60]	; 0x3c
    b90c:	11a0300a 	movne	r3, sl
    b910:	ebfffe08 	bl	b138 <_ZN13CScreenDevice8SetPixelEjjh>
    b914:	e2855001 	add	r5, r5, #1
    b918:	e1a00009 	mov	r0, r9
    b91c:	eb0000c5 	bl	bc38 <_ZNK14CCharGenerator12GetCharWidthEv>
    b920:	e1550000 	cmp	r5, r0
    b924:	3affffeb 	bcc	b8d8 <_ZN13CScreenDevice12InvertCursorEv+0x2c>
    b928:	e2888001 	add	r8, r8, #1
    b92c:	e1a00009 	mov	r0, r9
    b930:	eb0000c2 	bl	bc40 <_ZNK14CCharGenerator13GetCharHeightEv>
    b934:	e1580000 	cmp	r8, r0
    b938:	28bd87f0 	popcs	{r4, r5, r6, r7, r8, r9, sl, pc}
    b93c:	e1a0500a 	mov	r5, sl
    b940:	eafffff4 	b	b918 <_ZN13CScreenDevice12InvertCursorEv+0x6c>

0000b944 <_ZN13CScreenDevice10InitializeEv>:
    b944:	e92d4070 	push	{r4, r5, r6, lr}
    b948:	e1a04000 	mov	r4, r0
    b94c:	e590300c 	ldr	r3, [r0, #12]
    b950:	e3530000 	cmp	r3, #0
    b954:	1a00002d 	bne	ba10 <_ZN13CScreenDevice10InitializeEv+0xcc>
    b958:	e3a0000c 	mov	r0, #12
    b95c:	ebfff7b6 	bl	983c <_Znwj>
    b960:	e1a05000 	mov	r5, r0
    b964:	e5941004 	ldr	r1, [r4, #4]
    b968:	e5942008 	ldr	r2, [r4, #8]
    b96c:	e3a03008 	mov	r3, #8
    b970:	eb000ac9 	bl	e49c <_ZN15CBcmFrameBufferC1Ejjj>
    b974:	e5845010 	str	r5, [r4, #16]
    b978:	e1a00005 	mov	r0, r5
    b97c:	e3a01001 	mov	r1, #1
    b980:	e59f2128 	ldr	r2, [pc, #296]	; bab0 <_ZN13CScreenDevice10InitializeEv+0x16c>
    b984:	eb000b10 	bl	e5cc <_ZN15CBcmFrameBuffer10SetPaletteEht>
    b988:	e5940010 	ldr	r0, [r4, #16]
    b98c:	e3a01002 	mov	r1, #2
    b990:	e3a02b3e 	mov	r2, #63488	; 0xf800
    b994:	eb000b0c 	bl	e5cc <_ZN15CBcmFrameBuffer10SetPaletteEht>
    b998:	e5940010 	ldr	r0, [r4, #16]
    b99c:	e3a01003 	mov	r1, #3
    b9a0:	e3a0201f 	mov	r2, #31
    b9a4:	eb000b08 	bl	e5cc <_ZN15CBcmFrameBuffer10SetPaletteEht>
    b9a8:	e5940010 	ldr	r0, [r4, #16]
    b9ac:	eb000b0d 	bl	e5e8 <_ZN15CBcmFrameBuffer10InitializeEv>
    b9b0:	e3500000 	cmp	r0, #0
    b9b4:	0a000037 	beq	ba98 <_ZN13CScreenDevice10InitializeEv+0x154>
    b9b8:	e5940010 	ldr	r0, [r4, #16]
    b9bc:	eb000b26 	bl	e65c <_ZNK15CBcmFrameBuffer8GetDepthEv>
    b9c0:	e3500008 	cmp	r0, #8
    b9c4:	1a000035 	bne	baa0 <_ZN13CScreenDevice10InitializeEv+0x15c>
    b9c8:	e5940010 	ldr	r0, [r4, #16]
    b9cc:	eb000b25 	bl	e668 <_ZNK15CBcmFrameBuffer9GetBufferEv>
    b9d0:	e5840018 	str	r0, [r4, #24]
    b9d4:	e5940010 	ldr	r0, [r4, #16]
    b9d8:	eb000b25 	bl	e674 <_ZNK15CBcmFrameBuffer7GetSizeEv>
    b9dc:	e584001c 	str	r0, [r4, #28]
    b9e0:	e5940010 	ldr	r0, [r4, #16]
    b9e4:	eb000b13 	bl	e638 <_ZNK15CBcmFrameBuffer8GetWidthEv>
    b9e8:	e5840020 	str	r0, [r4, #32]
    b9ec:	e5940010 	ldr	r0, [r4, #16]
    b9f0:	eb000b13 	bl	e644 <_ZNK15CBcmFrameBuffer9GetHeightEv>
    b9f4:	e5840024 	str	r0, [r4, #36]	; 0x24
    b9f8:	e5940010 	ldr	r0, [r4, #16]
    b9fc:	eb000b13 	bl	e650 <_ZNK15CBcmFrameBuffer8GetPitchEv>
    ba00:	e5943020 	ldr	r3, [r4, #32]
    ba04:	e1500003 	cmp	r0, r3
    ba08:	1a000026 	bne	baa8 <_ZN13CScreenDevice10InitializeEv+0x164>
    ba0c:	ea000007 	b	ba30 <_ZN13CScreenDevice10InitializeEv+0xec>
    ba10:	e5900004 	ldr	r0, [r0, #4]
    ba14:	e5840020 	str	r0, [r4, #32]
    ba18:	e5943008 	ldr	r3, [r4, #8]
    ba1c:	e5843024 	str	r3, [r4, #36]	; 0x24
    ba20:	e0000390 	mul	r0, r0, r3
    ba24:	e584001c 	str	r0, [r4, #28]
    ba28:	ebfff786 	bl	9848 <_Znaj>
    ba2c:	e5840018 	str	r0, [r4, #24]
    ba30:	e5946024 	ldr	r6, [r4, #36]	; 0x24
    ba34:	e2845014 	add	r5, r4, #20
    ba38:	e1a00005 	mov	r0, r5
    ba3c:	eb00007f 	bl	bc40 <_ZNK14CCharGenerator13GetCharHeightEv>
    ba40:	e1a01000 	mov	r1, r0
    ba44:	e1a00006 	mov	r0, r6
    ba48:	ebfff683 	bl	945c <__aeabi_uidiv>
    ba4c:	e1a06000 	mov	r6, r0
    ba50:	e1a00005 	mov	r0, r5
    ba54:	eb000079 	bl	bc40 <_ZNK14CCharGenerator13GetCharHeightEv>
    ba58:	e0000690 	mul	r0, r0, r6
    ba5c:	e5840028 	str	r0, [r4, #40]	; 0x28
    ba60:	e3a05000 	mov	r5, #0
    ba64:	e5845030 	str	r5, [r4, #48]	; 0x30
    ba68:	e5845034 	str	r5, [r4, #52]	; 0x34
    ba6c:	e1a00004 	mov	r0, r4
    ba70:	ebfffe20 	bl	b2f8 <_ZN13CScreenDevice15ClearDisplayEndEv>
    ba74:	e1a00004 	mov	r0, r4
    ba78:	ebffff8b 	bl	b8ac <_ZN13CScreenDevice12InvertCursorEv>
    ba7c:	eb0001a4 	bl	c114 <_ZN18CDeviceNameService3GetEv>
    ba80:	e59f102c 	ldr	r1, [pc, #44]	; bab4 <_ZN13CScreenDevice10InitializeEv+0x170>
    ba84:	e1a02004 	mov	r2, r4
    ba88:	e1a03005 	mov	r3, r5
    ba8c:	eb000123 	bl	bf20 <_ZN18CDeviceNameService9AddDeviceEPKcP7CDevicei>
    ba90:	e3a00001 	mov	r0, #1
    ba94:	e8bd8070 	pop	{r4, r5, r6, pc}
    ba98:	e3a00000 	mov	r0, #0
    ba9c:	e8bd8070 	pop	{r4, r5, r6, pc}
    baa0:	e3a00000 	mov	r0, #0
    baa4:	e8bd8070 	pop	{r4, r5, r6, pc}
    baa8:	e3a00000 	mov	r0, #0
    baac:	e8bd8070 	pop	{r4, r5, r6, pc}
    bab0:	0000ffdf 	ldrdeq	pc, [r0], -pc	; <UNPREDICTABLE>
    bab4:	0000ec38 	andeq	lr, r0, r8, lsr ip

0000bab8 <_ZN13CScreenDevice5WriteEPKvj>:
    bab8:	e92d40f8 	push	{r3, r4, r5, r6, r7, lr}
    babc:	e1a05000 	mov	r5, r0
    bac0:	e1a07001 	mov	r7, r1
    bac4:	e1a06002 	mov	r6, r2
    bac8:	e5903050 	ldr	r3, [r0, #80]	; 0x50
    bacc:	e3530000 	cmp	r3, #0
    bad0:	0a000000 	beq	bad8 <_ZN13CScreenDevice5WriteEPKvj+0x20>
    bad4:	ebfff768 	bl	987c <EnterCritical>
    bad8:	e3a03001 	mov	r3, #1
    badc:	e585304c 	str	r3, [r5, #76]	; 0x4c
    bae0:	e1a00005 	mov	r0, r5
    bae4:	ebffff70 	bl	b8ac <_ZN13CScreenDevice12InvertCursorEv>
    bae8:	e3560000 	cmp	r6, #0
    baec:	0a000007 	beq	bb10 <_ZN13CScreenDevice5WriteEPKvj+0x58>
    baf0:	e3a04000 	mov	r4, #0
    baf4:	e1a00005 	mov	r0, r5
    baf8:	e19710d4 	ldrsb	r1, [r7, r4]
    bafc:	ebfffe28 	bl	b3a4 <_ZN13CScreenDevice5WriteEc>
    bb00:	e2844001 	add	r4, r4, #1
    bb04:	e1540006 	cmp	r4, r6
    bb08:	1afffff9 	bne	baf4 <_ZN13CScreenDevice5WriteEPKvj+0x3c>
    bb0c:	ea000000 	b	bb14 <_ZN13CScreenDevice5WriteEPKvj+0x5c>
    bb10:	e3a06000 	mov	r6, #0
    bb14:	e1a00005 	mov	r0, r5
    bb18:	ebffff63 	bl	b8ac <_ZN13CScreenDevice12InvertCursorEv>
    bb1c:	e3a03000 	mov	r3, #0
    bb20:	e585304c 	str	r3, [r5, #76]	; 0x4c
    bb24:	e5953050 	ldr	r3, [r5, #80]	; 0x50
    bb28:	e3530000 	cmp	r3, #0
    bb2c:	0a000000 	beq	bb34 <_ZN13CScreenDevice5WriteEPKvj+0x7c>
    bb30:	ebfff761 	bl	98bc <LeaveCritical>
    bb34:	e3a03000 	mov	r3, #0
    bb38:	ee073fba 	mcr	15, 0, r3, cr7, cr10, {5}
    bb3c:	e1a00006 	mov	r0, r6
    bb40:	e8bd80f8 	pop	{r3, r4, r5, r6, r7, pc}

0000bb44 <_ZN13CScreenDevice5RotorEjj>:
    bb44:	e92d40f0 	push	{r4, r5, r6, r7, lr}
    bb48:	e24dd00c 	sub	sp, sp, #12
    bb4c:	e1a04000 	mov	r4, r0
    bb50:	e1a06001 	mov	r6, r1
    bb54:	e1a07002 	mov	r7, r2
    bb58:	e5905020 	ldr	r5, [r0, #32]
    bb5c:	e2800014 	add	r0, r0, #20
    bb60:	eb000034 	bl	bc38 <_ZNK14CCharGenerator12GetCharWidthEv>
    bb64:	e2077003 	and	r7, r7, #3
    bb68:	e59f302c 	ldr	r3, [pc, #44]	; bb9c <_ZN13CScreenDevice5RotorEjj+0x58>
    bb6c:	e0837007 	add	r7, r3, r7
    bb70:	e1d711dc 	ldrsb	r1, [r7, #28]
    bb74:	e2066003 	and	r6, r6, #3
    bb78:	e0220096 	mla	r2, r6, r0, r0
    bb7c:	e3a03002 	mov	r3, #2
    bb80:	e58d3000 	str	r3, [sp]
    bb84:	e1a00004 	mov	r0, r4
    bb88:	e0622005 	rsb	r2, r2, r5
    bb8c:	e3a03000 	mov	r3, #0
    bb90:	ebfffd73 	bl	b164 <_ZN13CScreenDevice11DisplayCharEcjjh>
    bb94:	e28dd00c 	add	sp, sp, #12
    bb98:	e8bd80f0 	pop	{r4, r5, r6, r7, pc}
    bb9c:	0000ecb8 			; <UNDEFINED> instruction: 0x0000ecb8

0000bba0 <assertion_failed>:
    bba0:	e92d40f0 	push	{r4, r5, r6, r7, lr}
    bba4:	e24dd01c 	sub	sp, sp, #28
    bba8:	e1a05000 	mov	r5, r0
    bbac:	e1a07001 	mov	r7, r1
    bbb0:	e1a06002 	mov	r6, r2
    bbb4:	e1a0400d 	mov	r4, sp
    bbb8:	e28d0008 	add	r0, sp, #8
    bbbc:	eb000335 	bl	c898 <_ZN7CStringC1Ev>
    bbc0:	e28d0008 	add	r0, sp, #8
    bbc4:	e59f1054 	ldr	r1, [pc, #84]	; bc20 <assertion_failed+0x80>
    bbc8:	e1a02007 	mov	r2, r7
    bbcc:	e1a03006 	mov	r3, r6
    bbd0:	eb00052b 	bl	d084 <_ZN7CString6FormatEPKcz>
    bbd4:	e28d0008 	add	r0, sp, #8
    bbd8:	eb000345 	bl	c8f4 <_ZNK7CStringcvPKcEv>
    bbdc:	e1a01000 	mov	r1, r0
    bbe0:	e1a00004 	mov	r0, r4
    bbe4:	eb00007c 	bl	bddc <_Z16debug_stacktracePKjPKc>
    bbe8:	eb000178 	bl	c1d0 <_ZN7CLogger3GetEv>
    bbec:	e1a04000 	mov	r4, r0
    bbf0:	e28d0008 	add	r0, sp, #8
    bbf4:	eb00033e 	bl	c8f4 <_ZNK7CStringcvPKcEv>
    bbf8:	e1a01000 	mov	r1, r0
    bbfc:	e58d5000 	str	r5, [sp]
    bc00:	e1a00004 	mov	r0, r4
    bc04:	e3a02000 	mov	r2, #0
    bc08:	e59f3014 	ldr	r3, [pc, #20]	; bc24 <assertion_failed+0x84>
    bc0c:	eb000223 	bl	c4a0 <_ZN7CLogger5WriteEPKc12TLogSeverityS1_z>
    bc10:	e28d0008 	add	r0, sp, #8
    bc14:	eb00030b 	bl	c848 <_ZN7CStringD1Ev>
    bc18:	e28dd01c 	add	sp, sp, #28
    bc1c:	e8bd80f0 	pop	{r4, r5, r6, r7, pc}
    bc20:	0000ece0 	andeq	lr, r0, r0, ror #25
    bc24:	0000ece8 	andeq	lr, r0, r8, ror #25

0000bc28 <_ZN14CCharGeneratorC1Ev>:
    bc28:	e3a03008 	mov	r3, #8
    bc2c:	e5803000 	str	r3, [r0]
    bc30:	e12fff1e 	bx	lr

0000bc34 <_ZN14CCharGeneratorD1Ev>:
    bc34:	e12fff1e 	bx	lr

0000bc38 <_ZNK14CCharGenerator12GetCharWidthEv>:
    bc38:	e5900000 	ldr	r0, [r0]
    bc3c:	e12fff1e 	bx	lr

0000bc40 <_ZNK14CCharGenerator13GetCharHeightEv>:
    bc40:	e3a00013 	mov	r0, #19
    bc44:	e12fff1e 	bx	lr

0000bc48 <_ZNK14CCharGenerator12GetUnderlineEv>:
    bc48:	e3a00010 	mov	r0, #16
    bc4c:	e12fff1e 	bx	lr

0000bc50 <_ZNK14CCharGenerator8GetPixelEcjj>:
    bc50:	e92d4070 	push	{r4, r5, r6, lr}
    bc54:	e1a05002 	mov	r5, r2
    bc58:	e1a06003 	mov	r6, r3
    bc5c:	e6ef1071 	uxtb	r1, r1
    bc60:	e2414021 	sub	r4, r1, #33	; 0x21
    bc64:	e35400de 	cmp	r4, #222	; 0xde
    bc68:	8a000010 	bhi	bcb0 <_ZNK14CCharGenerator8GetPixelEcjj+0x60>
    bc6c:	e5903000 	ldr	r3, [r0]
    bc70:	e1530002 	cmp	r3, r2
    bc74:	8a000003 	bhi	bc88 <_ZNK14CCharGenerator8GetPixelEcjj+0x38>
    bc78:	e59f0040 	ldr	r0, [pc, #64]	; bcc0 <_ZNK14CCharGenerator8GetPixelEcjj+0x70>
    bc7c:	e59f1040 	ldr	r1, [pc, #64]	; bcc4 <_ZNK14CCharGenerator8GetPixelEcjj+0x74>
    bc80:	e3a0204e 	mov	r2, #78	; 0x4e
    bc84:	ebffffc5 	bl	bba0 <assertion_failed>
    bc88:	e356000f 	cmp	r6, #15
    bc8c:	8a000009 	bhi	bcb8 <_ZNK14CCharGenerator8GetPixelEcjj+0x68>
    bc90:	e0864204 	add	r4, r6, r4, lsl #4
    bc94:	e59f302c 	ldr	r3, [pc, #44]	; bcc8 <_ZNK14CCharGenerator8GetPixelEcjj+0x78>
    bc98:	e7d33004 	ldrb	r3, [r3, r4]
    bc9c:	e3a02080 	mov	r2, #128	; 0x80
    bca0:	e0133552 	ands	r3, r3, r2, asr r5
    bca4:	03a00000 	moveq	r0, #0
    bca8:	13a00001 	movne	r0, #1
    bcac:	e8bd8070 	pop	{r4, r5, r6, pc}
    bcb0:	e3a00000 	mov	r0, #0
    bcb4:	e8bd8070 	pop	{r4, r5, r6, pc}
    bcb8:	e3a00000 	mov	r0, #0
    bcbc:	e8bd8070 	pop	{r4, r5, r6, pc}
    bcc0:	0000faf0 	strdeq	pc, [r0], -r0
    bcc4:	0000fb08 	andeq	pc, r0, r8, lsl #22
    bcc8:	0000ed00 	andeq	lr, r0, r0, lsl #26

0000bccc <_Z13debug_hexdumpPKvjPKc>:
    bccc:	e92d41f0 	push	{r4, r5, r6, r7, r8, lr}
    bcd0:	e24dd048 	sub	sp, sp, #72	; 0x48
    bcd4:	e1a04000 	mov	r4, r0
    bcd8:	e1a05001 	mov	r5, r1
    bcdc:	e2526000 	subs	r6, r2, #0
    bce0:	e59f30e8 	ldr	r3, [pc, #232]	; bdd0 <_Z13debug_hexdumpPKvjPKc+0x104>
    bce4:	e3520000 	cmp	r2, #0
    bce8:	01a06003 	moveq	r6, r3
    bcec:	eb000137 	bl	c1d0 <_ZN7CLogger3GetEv>
    bcf0:	e58d5000 	str	r5, [sp]
    bcf4:	e58d4004 	str	r4, [sp, #4]
    bcf8:	e1a01006 	mov	r1, r6
    bcfc:	e3a02004 	mov	r2, #4
    bd00:	e59f30cc 	ldr	r3, [pc, #204]	; bdd4 <_Z13debug_hexdumpPKvjPKc+0x108>
    bd04:	eb0001e5 	bl	c4a0 <_ZN7CLogger5WriteEPKc12TLogSeverityS1_z>
    bd08:	e3550000 	cmp	r5, #0
    bd0c:	0a00002d 	beq	bdc8 <_Z13debug_hexdumpPKvjPKc+0xfc>
    bd10:	e59f80c0 	ldr	r8, [pc, #192]	; bdd8 <_Z13debug_hexdumpPKvjPKc+0x10c>
    bd14:	e3a07004 	mov	r7, #4
    bd18:	eb00012c 	bl	c1d0 <_ZN7CLogger3GetEv>
    bd1c:	e6ff3074 	uxth	r3, r4
    bd20:	e58d3000 	str	r3, [sp]
    bd24:	e5d43000 	ldrb	r3, [r4]
    bd28:	e58d3004 	str	r3, [sp, #4]
    bd2c:	e5d43001 	ldrb	r3, [r4, #1]
    bd30:	e58d3008 	str	r3, [sp, #8]
    bd34:	e5d43002 	ldrb	r3, [r4, #2]
    bd38:	e58d300c 	str	r3, [sp, #12]
    bd3c:	e5d43003 	ldrb	r3, [r4, #3]
    bd40:	e58d3010 	str	r3, [sp, #16]
    bd44:	e5d43004 	ldrb	r3, [r4, #4]
    bd48:	e58d3014 	str	r3, [sp, #20]
    bd4c:	e5d43005 	ldrb	r3, [r4, #5]
    bd50:	e58d3018 	str	r3, [sp, #24]
    bd54:	e5d43006 	ldrb	r3, [r4, #6]
    bd58:	e58d301c 	str	r3, [sp, #28]
    bd5c:	e5d43007 	ldrb	r3, [r4, #7]
    bd60:	e58d3020 	str	r3, [sp, #32]
    bd64:	e5d43008 	ldrb	r3, [r4, #8]
    bd68:	e58d3024 	str	r3, [sp, #36]	; 0x24
    bd6c:	e5d43009 	ldrb	r3, [r4, #9]
    bd70:	e58d3028 	str	r3, [sp, #40]	; 0x28
    bd74:	e5d4300a 	ldrb	r3, [r4, #10]
    bd78:	e58d302c 	str	r3, [sp, #44]	; 0x2c
    bd7c:	e5d4300b 	ldrb	r3, [r4, #11]
    bd80:	e58d3030 	str	r3, [sp, #48]	; 0x30
    bd84:	e5d4300c 	ldrb	r3, [r4, #12]
    bd88:	e58d3034 	str	r3, [sp, #52]	; 0x34
    bd8c:	e5d4c00d 	ldrb	ip, [r4, #13]
    bd90:	e58dc038 	str	ip, [sp, #56]	; 0x38
    bd94:	e5d4c00e 	ldrb	ip, [r4, #14]
    bd98:	e58dc03c 	str	ip, [sp, #60]	; 0x3c
    bd9c:	e5d4c00f 	ldrb	ip, [r4, #15]
    bda0:	e58dc040 	str	ip, [sp, #64]	; 0x40
    bda4:	e1a01006 	mov	r1, r6
    bda8:	e1a02007 	mov	r2, r7
    bdac:	e1a03008 	mov	r3, r8
    bdb0:	eb0001ba 	bl	c4a0 <_ZN7CLogger5WriteEPKc12TLogSeverityS1_z>
    bdb4:	e2844010 	add	r4, r4, #16
    bdb8:	e355000f 	cmp	r5, #15
    bdbc:	9a000001 	bls	bdc8 <_Z13debug_hexdumpPKvjPKc+0xfc>
    bdc0:	e2555010 	subs	r5, r5, #16
    bdc4:	1affffd3 	bne	bd18 <_Z13debug_hexdumpPKvjPKc+0x4c>
    bdc8:	e28dd048 	add	sp, sp, #72	; 0x48
    bdcc:	e8bd81f0 	pop	{r4, r5, r6, r7, r8, pc}
    bdd0:	0000fb1c 	andeq	pc, r0, ip, lsl fp	; <UNPREDICTABLE>
    bdd4:	0000fb24 	andeq	pc, r0, r4, lsr #22
    bdd8:	0000fb48 	andeq	pc, r0, r8, asr #22

0000bddc <_Z16debug_stacktracePKjPKc>:
    bddc:	e92d47f0 	push	{r4, r5, r6, r7, r8, r9, sl, lr}
    bde0:	e24dd008 	sub	sp, sp, #8
    bde4:	e2518000 	subs	r8, r1, #0
    bde8:	e59f3064 	ldr	r3, [pc, #100]	; be54 <_Z16debug_stacktracePKjPKc+0x78>
    bdec:	e3510000 	cmp	r1, #0
    bdf0:	01a08003 	moveq	r8, r3
    bdf4:	e1a05000 	mov	r5, r0
    bdf8:	e3a04000 	mov	r4, #0
    bdfc:	e59f6054 	ldr	r6, [pc, #84]	; be58 <_Z16debug_stacktracePKjPKc+0x7c>
    be00:	e59f7054 	ldr	r7, [pc, #84]	; be5c <_Z16debug_stacktracePKjPKc+0x80>
    be04:	e59fa054 	ldr	sl, [pc, #84]	; be60 <_Z16debug_stacktracePKjPKc+0x84>
    be08:	e3a09004 	mov	r9, #4
    be0c:	e495c004 	ldr	ip, [r5], #4
    be10:	e15c0006 	cmp	ip, r6
    be14:	9a000009 	bls	be40 <_Z16debug_stacktracePKjPKc+0x64>
    be18:	e15c0007 	cmp	ip, r7
    be1c:	2a000007 	bcs	be40 <_Z16debug_stacktracePKjPKc+0x64>
    be20:	eb0000ea 	bl	c1d0 <_ZN7CLogger3GetEv>
    be24:	e58d4000 	str	r4, [sp]
    be28:	e5153004 	ldr	r3, [r5, #-4]
    be2c:	e58d3004 	str	r3, [sp, #4]
    be30:	e1a01008 	mov	r1, r8
    be34:	e1a02009 	mov	r2, r9
    be38:	e1a0300a 	mov	r3, sl
    be3c:	eb000197 	bl	c4a0 <_ZN7CLogger5WriteEPKc12TLogSeverityS1_z>
    be40:	e2844001 	add	r4, r4, #1
    be44:	e3540040 	cmp	r4, #64	; 0x40
    be48:	1affffef 	bne	be0c <_Z16debug_stacktracePKjPKc+0x30>
    be4c:	e28dd008 	add	sp, sp, #8
    be50:	e8bd87f0 	pop	{r4, r5, r6, r7, r8, r9, sl, pc}
    be54:	0000fb1c 	andeq	pc, r0, ip, lsl fp	; <UNPREDICTABLE>
    be58:	00007fff 	strdeq	r7, [r0], -pc	; <UNPREDICTABLE>
    be5c:	0000e6d8 	ldrdeq	lr, [r0], -r8
    be60:	0000fba0 	andeq	pc, r0, r0, lsr #23

0000be64 <_ZN18CDeviceNameServiceC1Ev>:
    be64:	e92d4010 	push	{r4, lr}
    be68:	e1a04000 	mov	r4, r0
    be6c:	e3a03000 	mov	r3, #0
    be70:	e5803000 	str	r3, [r0]
    be74:	e5803004 	str	r3, [r0, #4]
    be78:	e59f3028 	ldr	r3, [pc, #40]	; bea8 <_ZN18CDeviceNameServiceC1Ev+0x44>
    be7c:	e5933000 	ldr	r3, [r3]
    be80:	e3530000 	cmp	r3, #0
    be84:	0a000003 	beq	be98 <_ZN18CDeviceNameServiceC1Ev+0x34>
    be88:	e59f001c 	ldr	r0, [pc, #28]	; beac <_ZN18CDeviceNameServiceC1Ev+0x48>
    be8c:	e59f101c 	ldr	r1, [pc, #28]	; beb0 <_ZN18CDeviceNameServiceC1Ev+0x4c>
    be90:	e3a0201e 	mov	r2, #30
    be94:	ebffff41 	bl	bba0 <assertion_failed>
    be98:	e59f3008 	ldr	r3, [pc, #8]	; bea8 <_ZN18CDeviceNameServiceC1Ev+0x44>
    be9c:	e5834000 	str	r4, [r3]
    bea0:	e1a00004 	mov	r0, r4
    bea4:	e8bd8010 	pop	{r4, pc}
    bea8:	00010104 	andeq	r0, r1, r4, lsl #2
    beac:	0000fbb4 			; <UNDEFINED> instruction: 0x0000fbb4
    beb0:	0000fbc0 	andeq	pc, r0, r0, asr #23

0000beb4 <_ZN18CDeviceNameServiceD1Ev>:
    beb4:	e92d4070 	push	{r4, r5, r6, lr}
    beb8:	e1a04000 	mov	r4, r0
    bebc:	e5903000 	ldr	r3, [r0]
    bec0:	e3530000 	cmp	r3, #0
    bec4:	0a00000f 	beq	bf08 <_ZN18CDeviceNameServiceD1Ev+0x54>
    bec8:	e3a06000 	mov	r6, #0
    becc:	e5935000 	ldr	r5, [r3]
    bed0:	e5930004 	ldr	r0, [r3, #4]
    bed4:	e3500000 	cmp	r0, #0
    bed8:	0a000000 	beq	bee0 <_ZN18CDeviceNameServiceD1Ev+0x2c>
    bedc:	ebfff661 	bl	9868 <_ZdaPv>
    bee0:	e5943000 	ldr	r3, [r4]
    bee4:	e5836004 	str	r6, [r3, #4]
    bee8:	e5943000 	ldr	r3, [r4]
    beec:	e5836008 	str	r6, [r3, #8]
    bef0:	e5940000 	ldr	r0, [r4]
    bef4:	ebfff656 	bl	9854 <_ZdlPv>
    bef8:	e5845000 	str	r5, [r4]
    befc:	e3550000 	cmp	r5, #0
    bf00:	11a03005 	movne	r3, r5
    bf04:	1afffff0 	bne	becc <_ZN18CDeviceNameServiceD1Ev+0x18>
    bf08:	e3a02000 	mov	r2, #0
    bf0c:	e59f3008 	ldr	r3, [pc, #8]	; bf1c <_ZN18CDeviceNameServiceD1Ev+0x68>
    bf10:	e5832000 	str	r2, [r3]
    bf14:	e1a00004 	mov	r0, r4
    bf18:	e8bd8070 	pop	{r4, r5, r6, pc}
    bf1c:	00010104 	andeq	r0, r1, r4, lsl #2

0000bf20 <_ZN18CDeviceNameService9AddDeviceEPKcP7CDevicei>:
    bf20:	e92d41f0 	push	{r4, r5, r6, r7, r8, lr}
    bf24:	e1a05000 	mov	r5, r0
    bf28:	e1a06001 	mov	r6, r1
    bf2c:	e1a07002 	mov	r7, r2
    bf30:	e1a08003 	mov	r8, r3
    bf34:	e5903004 	ldr	r3, [r0, #4]
    bf38:	e3530000 	cmp	r3, #0
    bf3c:	0a000000 	beq	bf44 <_ZN18CDeviceNameService9AddDeviceEPKcP7CDevicei+0x24>
    bf40:	ebfff64d 	bl	987c <EnterCritical>
    bf44:	e3a00010 	mov	r0, #16
    bf48:	ebfff63b 	bl	983c <_Znwj>
    bf4c:	e2504000 	subs	r4, r0, #0
    bf50:	1a000003 	bne	bf64 <_ZN18CDeviceNameService9AddDeviceEPKcP7CDevicei+0x44>
    bf54:	e59f0098 	ldr	r0, [pc, #152]	; bff4 <_ZN18CDeviceNameService9AddDeviceEPKcP7CDevicei+0xd4>
    bf58:	e59f1098 	ldr	r1, [pc, #152]	; bff8 <_ZN18CDeviceNameService9AddDeviceEPKcP7CDevicei+0xd8>
    bf5c:	e3a02038 	mov	r2, #56	; 0x38
    bf60:	ebffff0e 	bl	bba0 <assertion_failed>
    bf64:	e3560000 	cmp	r6, #0
    bf68:	1a000003 	bne	bf7c <_ZN18CDeviceNameService9AddDeviceEPKcP7CDevicei+0x5c>
    bf6c:	e59f0088 	ldr	r0, [pc, #136]	; bffc <_ZN18CDeviceNameService9AddDeviceEPKcP7CDevicei+0xdc>
    bf70:	e59f1080 	ldr	r1, [pc, #128]	; bff8 <_ZN18CDeviceNameService9AddDeviceEPKcP7CDevicei+0xd8>
    bf74:	e3a0203a 	mov	r2, #58	; 0x3a
    bf78:	ebffff08 	bl	bba0 <assertion_failed>
    bf7c:	e1a00006 	mov	r0, r6
    bf80:	ebfff8f7 	bl	a364 <strlen>
    bf84:	e2800001 	add	r0, r0, #1
    bf88:	ebfff62e 	bl	9848 <_Znaj>
    bf8c:	e5840004 	str	r0, [r4, #4]
    bf90:	e3500000 	cmp	r0, #0
    bf94:	1a000003 	bne	bfa8 <_ZN18CDeviceNameService9AddDeviceEPKcP7CDevicei+0x88>
    bf98:	e59f0060 	ldr	r0, [pc, #96]	; c000 <_ZN18CDeviceNameService9AddDeviceEPKcP7CDevicei+0xe0>
    bf9c:	e59f1054 	ldr	r1, [pc, #84]	; bff8 <_ZN18CDeviceNameService9AddDeviceEPKcP7CDevicei+0xd8>
    bfa0:	e3a0203c 	mov	r2, #60	; 0x3c
    bfa4:	ebfffefd 	bl	bba0 <assertion_failed>
    bfa8:	e5940004 	ldr	r0, [r4, #4]
    bfac:	e1a01006 	mov	r1, r6
    bfb0:	ebfff925 	bl	a44c <strcpy>
    bfb4:	e3570000 	cmp	r7, #0
    bfb8:	1a000003 	bne	bfcc <_ZN18CDeviceNameService9AddDeviceEPKcP7CDevicei+0xac>
    bfbc:	e59f0040 	ldr	r0, [pc, #64]	; c004 <_ZN18CDeviceNameService9AddDeviceEPKcP7CDevicei+0xe4>
    bfc0:	e59f1030 	ldr	r1, [pc, #48]	; bff8 <_ZN18CDeviceNameService9AddDeviceEPKcP7CDevicei+0xd8>
    bfc4:	e3a0203f 	mov	r2, #63	; 0x3f
    bfc8:	ebfffef4 	bl	bba0 <assertion_failed>
    bfcc:	e5847008 	str	r7, [r4, #8]
    bfd0:	e584800c 	str	r8, [r4, #12]
    bfd4:	e5953000 	ldr	r3, [r5]
    bfd8:	e5843000 	str	r3, [r4]
    bfdc:	e5854000 	str	r4, [r5]
    bfe0:	e5953004 	ldr	r3, [r5, #4]
    bfe4:	e3530000 	cmp	r3, #0
    bfe8:	08bd81f0 	popeq	{r4, r5, r6, r7, r8, pc}
    bfec:	ebfff632 	bl	98bc <LeaveCritical>
    bff0:	e8bd81f0 	pop	{r4, r5, r6, r7, r8, pc}
    bff4:	0000fbd8 	ldrdeq	pc, [r0], -r8
    bff8:	0000fbc0 	andeq	pc, r0, r0, asr #23
    bffc:	0000fbe4 	andeq	pc, r0, r4, ror #23
    c000:	0000fbf0 	strdeq	pc, [r0], -r0
    c004:	0000fc04 	andeq	pc, r0, r4, lsl #24

0000c008 <_ZN18CDeviceNameService9GetDeviceEPKci>:
    c008:	e92d47f0 	push	{r4, r5, r6, r7, r8, r9, sl, lr}
    c00c:	e1a07000 	mov	r7, r0
    c010:	e1a06002 	mov	r6, r2
    c014:	e2515000 	subs	r5, r1, #0
    c018:	1a000003 	bne	c02c <_ZN18CDeviceNameService9GetDeviceEPKci+0x24>
    c01c:	e59f00e0 	ldr	r0, [pc, #224]	; c104 <_ZN18CDeviceNameService9GetDeviceEPKci+0xfc>
    c020:	e59f10e0 	ldr	r1, [pc, #224]	; c108 <_ZN18CDeviceNameService9GetDeviceEPKci+0x100>
    c024:	e3a0204c 	mov	r2, #76	; 0x4c
    c028:	ebfffedc 	bl	bba0 <assertion_failed>
    c02c:	e5973004 	ldr	r3, [r7, #4]
    c030:	e3530000 	cmp	r3, #0
    c034:	0a000000 	beq	c03c <_ZN18CDeviceNameService9GetDeviceEPKci+0x34>
    c038:	ebfff60f 	bl	987c <EnterCritical>
    c03c:	e5974000 	ldr	r4, [r7]
    c040:	e3540000 	cmp	r4, #0
    c044:	0a00001b 	beq	c0b8 <_ZN18CDeviceNameService9GetDeviceEPKci+0xb0>
    c048:	e59fa0bc 	ldr	sl, [pc, #188]	; c10c <_ZN18CDeviceNameService9GetDeviceEPKci+0x104>
    c04c:	e59f90b4 	ldr	r9, [pc, #180]	; c108 <_ZN18CDeviceNameService9GetDeviceEPKci+0x100>
    c050:	e3a08053 	mov	r8, #83	; 0x53
    c054:	e5943004 	ldr	r3, [r4, #4]
    c058:	e3530000 	cmp	r3, #0
    c05c:	1a000003 	bne	c070 <_ZN18CDeviceNameService9GetDeviceEPKci+0x68>
    c060:	e1a0000a 	mov	r0, sl
    c064:	e1a01009 	mov	r1, r9
    c068:	e1a02008 	mov	r2, r8
    c06c:	ebfffecb 	bl	bba0 <assertion_failed>
    c070:	e1a00005 	mov	r0, r5
    c074:	e5941004 	ldr	r1, [r4, #4]
    c078:	ebfff8c5 	bl	a394 <strcmp>
    c07c:	e3500000 	cmp	r0, #0
    c080:	1a000016 	bne	c0e0 <_ZN18CDeviceNameService9GetDeviceEPKci+0xd8>
    c084:	e594300c 	ldr	r3, [r4, #12]
    c088:	e1530006 	cmp	r3, r6
    c08c:	1a000013 	bne	c0e0 <_ZN18CDeviceNameService9GetDeviceEPKci+0xd8>
    c090:	ea000016 	b	c0f0 <_ZN18CDeviceNameService9GetDeviceEPKci+0xe8>
    c094:	ebfff608 	bl	98bc <LeaveCritical>
    c098:	e3540000 	cmp	r4, #0
    c09c:	1a00000b 	bne	c0d0 <_ZN18CDeviceNameService9GetDeviceEPKci+0xc8>
    c0a0:	e59f0068 	ldr	r0, [pc, #104]	; c110 <_ZN18CDeviceNameService9GetDeviceEPKci+0x108>
    c0a4:	e59f105c 	ldr	r1, [pc, #92]	; c108 <_ZN18CDeviceNameService9GetDeviceEPKci+0x100>
    c0a8:	e3a0205b 	mov	r2, #91	; 0x5b
    c0ac:	ebfffebb 	bl	bba0 <assertion_failed>
    c0b0:	e1a00004 	mov	r0, r4
    c0b4:	e8bd87f0 	pop	{r4, r5, r6, r7, r8, r9, sl, pc}
    c0b8:	e5973004 	ldr	r3, [r7, #4]
    c0bc:	e3530000 	cmp	r3, #0
    c0c0:	0a000004 	beq	c0d8 <_ZN18CDeviceNameService9GetDeviceEPKci+0xd0>
    c0c4:	ebfff5fc 	bl	98bc <LeaveCritical>
    c0c8:	e3a00000 	mov	r0, #0
    c0cc:	e8bd87f0 	pop	{r4, r5, r6, r7, r8, r9, sl, pc}
    c0d0:	e1a00004 	mov	r0, r4
    c0d4:	e8bd87f0 	pop	{r4, r5, r6, r7, r8, r9, sl, pc}
    c0d8:	e3a00000 	mov	r0, #0
    c0dc:	e8bd87f0 	pop	{r4, r5, r6, r7, r8, r9, sl, pc}
    c0e0:	e5944000 	ldr	r4, [r4]
    c0e4:	e3540000 	cmp	r4, #0
    c0e8:	1affffd9 	bne	c054 <_ZN18CDeviceNameService9GetDeviceEPKci+0x4c>
    c0ec:	eafffff1 	b	c0b8 <_ZN18CDeviceNameService9GetDeviceEPKci+0xb0>
    c0f0:	e5944008 	ldr	r4, [r4, #8]
    c0f4:	e5973004 	ldr	r3, [r7, #4]
    c0f8:	e3530000 	cmp	r3, #0
    c0fc:	0affffe5 	beq	c098 <_ZN18CDeviceNameService9GetDeviceEPKci+0x90>
    c100:	eaffffe3 	b	c094 <_ZN18CDeviceNameService9GetDeviceEPKci+0x8c>
    c104:	0000fbe4 	andeq	pc, r0, r4, ror #23
    c108:	0000fbc0 	andeq	pc, r0, r0, asr #23
    c10c:	0000fbf0 	strdeq	pc, [r0], -r0
    c110:	0000fc14 	andeq	pc, r0, r4, lsl ip	; <UNPREDICTABLE>

0000c114 <_ZN18CDeviceNameService3GetEv>:
    c114:	e92d4008 	push	{r3, lr}
    c118:	e59f3024 	ldr	r3, [pc, #36]	; c144 <_ZN18CDeviceNameService3GetEv+0x30>
    c11c:	e5933000 	ldr	r3, [r3]
    c120:	e3530000 	cmp	r3, #0
    c124:	1a000003 	bne	c138 <_ZN18CDeviceNameService3GetEv+0x24>
    c128:	e59f0018 	ldr	r0, [pc, #24]	; c148 <_ZN18CDeviceNameService3GetEv+0x34>
    c12c:	e59f1018 	ldr	r1, [pc, #24]	; c14c <_ZN18CDeviceNameService3GetEv+0x38>
    c130:	e3a02069 	mov	r2, #105	; 0x69
    c134:	ebfffe99 	bl	bba0 <assertion_failed>
    c138:	e59f3004 	ldr	r3, [pc, #4]	; c144 <_ZN18CDeviceNameService3GetEv+0x30>
    c13c:	e5930000 	ldr	r0, [r3]
    c140:	e8bd8008 	pop	{r3, pc}
    c144:	00010104 	andeq	r0, r1, r4, lsl #2
    c148:	0000fc24 	andeq	pc, r0, r4, lsr #24
    c14c:	0000fbc0 	andeq	pc, r0, r0, asr #23

0000c150 <_ZN7CLoggerC1EjP6CTimer>:
    c150:	e92d4010 	push	{r4, lr}
    c154:	e1a04000 	mov	r4, r0
    c158:	e5801000 	str	r1, [r0]
    c15c:	e5802004 	str	r2, [r0, #4]
    c160:	e3a03000 	mov	r3, #0
    c164:	e5803008 	str	r3, [r0, #8]
    c168:	e580300c 	str	r3, [r0, #12]
    c16c:	e5803010 	str	r3, [r0, #16]
    c170:	e5803014 	str	r3, [r0, #20]
    c174:	e3a03001 	mov	r3, #1
    c178:	e5803018 	str	r3, [r0, #24]
    c17c:	e3a00901 	mov	r0, #16384	; 0x4000
    c180:	ebfff5b0 	bl	9848 <_Znaj>
    c184:	e584000c 	str	r0, [r4, #12]
    c188:	e59f3008 	ldr	r3, [pc, #8]	; c198 <_ZN7CLoggerC1EjP6CTimer+0x48>
    c18c:	e5834000 	str	r4, [r3]
    c190:	e1a00004 	mov	r0, r4
    c194:	e8bd8010 	pop	{r4, pc}
    c198:	00010108 	andeq	r0, r1, r8, lsl #2

0000c19c <_ZN7CLoggerD1Ev>:
    c19c:	e92d4038 	push	{r3, r4, r5, lr}
    c1a0:	e1a04000 	mov	r4, r0
    c1a4:	e3a05000 	mov	r5, #0
    c1a8:	e59f301c 	ldr	r3, [pc, #28]	; c1cc <_ZN7CLoggerD1Ev+0x30>
    c1ac:	e5835000 	str	r5, [r3]
    c1b0:	e590000c 	ldr	r0, [r0, #12]
    c1b4:	ebfff5a6 	bl	9854 <_ZdlPv>
    c1b8:	e584500c 	str	r5, [r4, #12]
    c1bc:	e5845008 	str	r5, [r4, #8]
    c1c0:	e5845004 	str	r5, [r4, #4]
    c1c4:	e1a00004 	mov	r0, r4
    c1c8:	e8bd8038 	pop	{r3, r4, r5, pc}
    c1cc:	00010108 	andeq	r0, r1, r8, lsl #2

0000c1d0 <_ZN7CLogger3GetEv>:
    c1d0:	e59f3004 	ldr	r3, [pc, #4]	; c1dc <_ZN7CLogger3GetEv+0xc>
    c1d4:	e5930000 	ldr	r0, [r3]
    c1d8:	e12fff1e 	bx	lr
    c1dc:	00010108 	andeq	r0, r1, r8, lsl #2

0000c1e0 <_ZN7CLogger5WriteEPKc>:
    c1e0:	e92d4070 	push	{r4, r5, r6, lr}
    c1e4:	e1a04000 	mov	r4, r0
    c1e8:	e1a05001 	mov	r5, r1
    c1ec:	e1a00001 	mov	r0, r1
    c1f0:	ebfff85b 	bl	a364 <strlen>
    c1f4:	e1a06000 	mov	r6, r0
    c1f8:	e5940008 	ldr	r0, [r4, #8]
    c1fc:	e5903000 	ldr	r3, [r0]
    c200:	e593300c 	ldr	r3, [r3, #12]
    c204:	e1a01005 	mov	r1, r5
    c208:	e1a02006 	mov	r2, r6
    c20c:	e12fff33 	blx	r3
    c210:	e5943018 	ldr	r3, [r4, #24]
    c214:	e3530000 	cmp	r3, #0
    c218:	0a000000 	beq	c220 <_ZN7CLogger5WriteEPKc+0x40>
    c21c:	ebfff596 	bl	987c <EnterCritical>
    c220:	e0850006 	add	r0, r5, r6
    c224:	ea000013 	b	c278 <_ZN7CLogger5WriteEPKc+0x98>
    c228:	e4d53001 	ldrb	r3, [r5], #1
    c22c:	e6af1073 	sxtb	r1, r3
    c230:	e351000d 	cmp	r1, #13
    c234:	0a00000f 	beq	c278 <_ZN7CLogger5WriteEPKc+0x98>
    c238:	e594c00c 	ldr	ip, [r4, #12]
    c23c:	e5941010 	ldr	r1, [r4, #16]
    c240:	e7cc3001 	strb	r3, [ip, r1]
    c244:	e5943010 	ldr	r3, [r4, #16]
    c248:	e2833001 	add	r3, r3, #1
    c24c:	e1a03903 	lsl	r3, r3, #18
    c250:	e1a03923 	lsr	r3, r3, #18
    c254:	e5843010 	str	r3, [r4, #16]
    c258:	e5941014 	ldr	r1, [r4, #20]
    c25c:	e1530001 	cmp	r3, r1
    c260:	1a000004 	bne	c278 <_ZN7CLogger5WriteEPKc+0x98>
    c264:	e2433001 	sub	r3, r3, #1
    c268:	e1a03903 	lsl	r3, r3, #18
    c26c:	e1a03923 	lsr	r3, r3, #18
    c270:	e5843010 	str	r3, [r4, #16]
    c274:	ea000001 	b	c280 <_ZN7CLogger5WriteEPKc+0xa0>
    c278:	e1550000 	cmp	r5, r0
    c27c:	1affffe9 	bne	c228 <_ZN7CLogger5WriteEPKc+0x48>
    c280:	e5943018 	ldr	r3, [r4, #24]
    c284:	e3530000 	cmp	r3, #0
    c288:	08bd8070 	popeq	{r4, r5, r6, pc}
    c28c:	ebfff58a 	bl	98bc <LeaveCritical>
    c290:	e8bd8070 	pop	{r4, r5, r6, pc}

0000c294 <_ZN7CLogger4ReadEPvj>:
    c294:	e92d4070 	push	{r4, r5, r6, lr}
    c298:	e1a04000 	mov	r4, r0
    c29c:	e1a06001 	mov	r6, r1
    c2a0:	e1a05002 	mov	r5, r2
    c2a4:	e5903018 	ldr	r3, [r0, #24]
    c2a8:	e3530000 	cmp	r3, #0
    c2ac:	0a000000 	beq	c2b4 <_ZN7CLogger4ReadEPvj+0x20>
    c2b0:	ebfff571 	bl	987c <EnterCritical>
    c2b4:	e5941010 	ldr	r1, [r4, #16]
    c2b8:	e5943014 	ldr	r3, [r4, #20]
    c2bc:	e1510003 	cmp	r1, r3
    c2c0:	11a02005 	movne	r2, r5
    c2c4:	13a05000 	movne	r5, #0
    c2c8:	1a000012 	bne	c318 <_ZN7CLogger4ReadEPvj+0x84>
    c2cc:	e5943018 	ldr	r3, [r4, #24]
    c2d0:	e3530000 	cmp	r3, #0
    c2d4:	0a000017 	beq	c338 <_ZN7CLogger4ReadEPvj+0xa4>
    c2d8:	ebfff577 	bl	98bc <LeaveCritical>
    c2dc:	e3e00000 	mvn	r0, #0
    c2e0:	e8bd8070 	pop	{r4, r5, r6, pc}
    c2e4:	e594100c 	ldr	r1, [r4, #12]
    c2e8:	e5943014 	ldr	r3, [r4, #20]
    c2ec:	e7d13003 	ldrb	r3, [r1, r3]
    c2f0:	e7c63005 	strb	r3, [r6, r5]
    c2f4:	e5943014 	ldr	r3, [r4, #20]
    c2f8:	e2833001 	add	r3, r3, #1
    c2fc:	e1a03903 	lsl	r3, r3, #18
    c300:	e1a03923 	lsr	r3, r3, #18
    c304:	e5843014 	str	r3, [r4, #20]
    c308:	e2855001 	add	r5, r5, #1
    c30c:	e5940010 	ldr	r0, [r4, #16]
    c310:	e1530000 	cmp	r3, r0
    c314:	0a000001 	beq	c320 <_ZN7CLogger4ReadEPvj+0x8c>
    c318:	e1550002 	cmp	r5, r2
    c31c:	1afffff0 	bne	c2e4 <_ZN7CLogger4ReadEPvj+0x50>
    c320:	e5943018 	ldr	r3, [r4, #24]
    c324:	e3530000 	cmp	r3, #0
    c328:	0a000004 	beq	c340 <_ZN7CLogger4ReadEPvj+0xac>
    c32c:	ebfff562 	bl	98bc <LeaveCritical>
    c330:	e1a00005 	mov	r0, r5
    c334:	e8bd8070 	pop	{r4, r5, r6, pc}
    c338:	e3e00000 	mvn	r0, #0
    c33c:	e8bd8070 	pop	{r4, r5, r6, pc}
    c340:	e1a00005 	mov	r0, r5
    c344:	e8bd8070 	pop	{r4, r5, r6, pc}

0000c348 <_ZN7CLogger6WriteVEPKc12TLogSeverityS1_St9__va_list>:
    c348:	e92d41f0 	push	{r4, r5, r6, r7, r8, lr}
    c34c:	e24dd020 	sub	sp, sp, #32
    c350:	e1a05000 	mov	r5, r0
    c354:	e1a07001 	mov	r7, r1
    c358:	e1a04002 	mov	r4, r2
    c35c:	e1a06003 	mov	r6, r3
    c360:	e5902000 	ldr	r2, [r0]
    c364:	e1540002 	cmp	r4, r2
    c368:	8a000045 	bhi	c484 <_ZN7CLogger6WriteVEPKc12TLogSeverityS1_St9__va_list+0x13c>
    c36c:	e1a0000d 	mov	r0, sp
    c370:	eb000148 	bl	c898 <_ZN7CStringC1Ev>
    c374:	e3540000 	cmp	r4, #0
    c378:	1a000002 	bne	c388 <_ZN7CLogger6WriteVEPKc12TLogSeverityS1_St9__va_list+0x40>
    c37c:	e1a0000d 	mov	r0, sp
    c380:	e59f1104 	ldr	r1, [pc, #260]	; c48c <_ZN7CLogger6WriteVEPKc12TLogSeverityS1_St9__va_list+0x144>
    c384:	eb000160 	bl	c90c <_ZN7CStringaSEPKc>
    c388:	e5950004 	ldr	r0, [r5, #4]
    c38c:	e3500000 	cmp	r0, #0
    c390:	0a00000e 	beq	c3d0 <_ZN7CLogger6WriteVEPKc12TLogSeverityS1_St9__va_list+0x88>
    c394:	ebfff740 	bl	a09c <_ZN6CTimer13GetTimeStringEv>
    c398:	e2508000 	subs	r8, r0, #0
    c39c:	0a00000b 	beq	c3d0 <_ZN7CLogger6WriteVEPKc12TLogSeverityS1_St9__va_list+0x88>
    c3a0:	e1a00008 	mov	r0, r8
    c3a4:	eb000152 	bl	c8f4 <_ZNK7CStringcvPKcEv>
    c3a8:	e1a01000 	mov	r1, r0
    c3ac:	e1a0000d 	mov	r0, sp
    c3b0:	eb00016e 	bl	c970 <_ZN7CString6AppendEPKc>
    c3b4:	e1a0000d 	mov	r0, sp
    c3b8:	e59f10d0 	ldr	r1, [pc, #208]	; c490 <_ZN7CLogger6WriteVEPKc12TLogSeverityS1_St9__va_list+0x148>
    c3bc:	eb00016b 	bl	c970 <_ZN7CString6AppendEPKc>
    c3c0:	e5983000 	ldr	r3, [r8]
    c3c4:	e5933004 	ldr	r3, [r3, #4]
    c3c8:	e1a00008 	mov	r0, r8
    c3cc:	e12fff33 	blx	r3
    c3d0:	e1a0000d 	mov	r0, sp
    c3d4:	e1a01007 	mov	r1, r7
    c3d8:	eb000164 	bl	c970 <_ZN7CString6AppendEPKc>
    c3dc:	e1a0000d 	mov	r0, sp
    c3e0:	e59f10ac 	ldr	r1, [pc, #172]	; c494 <_ZN7CLogger6WriteVEPKc12TLogSeverityS1_St9__va_list+0x14c>
    c3e4:	eb000161 	bl	c970 <_ZN7CString6AppendEPKc>
    c3e8:	e28d0010 	add	r0, sp, #16
    c3ec:	eb000129 	bl	c898 <_ZN7CStringC1Ev>
    c3f0:	e28d0010 	add	r0, sp, #16
    c3f4:	e1a01006 	mov	r1, r6
    c3f8:	e59d2038 	ldr	r2, [sp, #56]	; 0x38
    c3fc:	eb00020a 	bl	cc2c <_ZN7CString7FormatVEPKcSt9__va_list>
    c400:	e28d0010 	add	r0, sp, #16
    c404:	eb00013a 	bl	c8f4 <_ZNK7CStringcvPKcEv>
    c408:	e1a01000 	mov	r1, r0
    c40c:	e1a0000d 	mov	r0, sp
    c410:	eb000156 	bl	c970 <_ZN7CString6AppendEPKc>
    c414:	e3540000 	cmp	r4, #0
    c418:	1a000010 	bne	c460 <_ZN7CLogger6WriteVEPKc12TLogSeverityS1_St9__va_list+0x118>
    c41c:	e1a0000d 	mov	r0, sp
    c420:	e59f1070 	ldr	r1, [pc, #112]	; c498 <_ZN7CLogger6WriteVEPKc12TLogSeverityS1_St9__va_list+0x150>
    c424:	eb000151 	bl	c970 <_ZN7CString6AppendEPKc>
    c428:	e1a0000d 	mov	r0, sp
    c42c:	e59f1068 	ldr	r1, [pc, #104]	; c49c <_ZN7CLogger6WriteVEPKc12TLogSeverityS1_St9__va_list+0x154>
    c430:	eb00014e 	bl	c970 <_ZN7CString6AppendEPKc>
    c434:	e1a0000d 	mov	r0, sp
    c438:	eb00012d 	bl	c8f4 <_ZNK7CStringcvPKcEv>
    c43c:	e1a01000 	mov	r1, r0
    c440:	e1a00005 	mov	r0, r5
    c444:	ebffff65 	bl	c1e0 <_ZN7CLogger5WriteEPKc>
    c448:	ebfff535 	bl	9924 <halt>
    c44c:	e28d0010 	add	r0, sp, #16
    c450:	eb0000fc 	bl	c848 <_ZN7CStringD1Ev>
    c454:	e1a0000d 	mov	r0, sp
    c458:	eb0000fa 	bl	c848 <_ZN7CStringD1Ev>
    c45c:	ea000008 	b	c484 <_ZN7CLogger6WriteVEPKc12TLogSeverityS1_St9__va_list+0x13c>
    c460:	e1a0000d 	mov	r0, sp
    c464:	e59f1030 	ldr	r1, [pc, #48]	; c49c <_ZN7CLogger6WriteVEPKc12TLogSeverityS1_St9__va_list+0x154>
    c468:	eb000140 	bl	c970 <_ZN7CString6AppendEPKc>
    c46c:	e1a0000d 	mov	r0, sp
    c470:	eb00011f 	bl	c8f4 <_ZNK7CStringcvPKcEv>
    c474:	e1a01000 	mov	r1, r0
    c478:	e1a00005 	mov	r0, r5
    c47c:	ebffff57 	bl	c1e0 <_ZN7CLogger5WriteEPKc>
    c480:	eafffff1 	b	c44c <_ZN7CLogger6WriteVEPKc12TLogSeverityS1_St9__va_list+0x104>
    c484:	e28dd020 	add	sp, sp, #32
    c488:	e8bd81f0 	pop	{r4, r5, r6, r7, r8, pc}
    c48c:	0000fc30 	andeq	pc, r0, r0, lsr ip	; <UNPREDICTABLE>
    c490:	0000fc38 	andeq	pc, r0, r8, lsr ip	; <UNPREDICTABLE>
    c494:	0000fc3c 	andeq	pc, r0, ip, lsr ip	; <UNPREDICTABLE>
    c498:	0000fc40 	andeq	pc, r0, r0, asr #24
    c49c:	0000fc48 	andeq	pc, r0, r8, asr #24

0000c4a0 <_ZN7CLogger5WriteEPKc12TLogSeverityS1_z>:
    c4a0:	e52d3004 	push	{r3}		; (str r3, [sp, #-4]!)
    c4a4:	e52de004 	push	{lr}		; (str lr, [sp, #-4]!)
    c4a8:	e24dd010 	sub	sp, sp, #16
    c4ac:	e28d3018 	add	r3, sp, #24
    c4b0:	e58d300c 	str	r3, [sp, #12]
    c4b4:	e58d3000 	str	r3, [sp]
    c4b8:	e59d3014 	ldr	r3, [sp, #20]
    c4bc:	ebffffa1 	bl	c348 <_ZN7CLogger6WriteVEPKc12TLogSeverityS1_St9__va_list>
    c4c0:	e28dd010 	add	sp, sp, #16
    c4c4:	e49de004 	pop	{lr}		; (ldr lr, [sp], #4)
    c4c8:	e28dd004 	add	sp, sp, #4
    c4cc:	e12fff1e 	bx	lr

0000c4d0 <_ZN7CLogger10InitializeEP7CDevice>:
    c4d0:	e92d4008 	push	{r3, lr}
    c4d4:	e5801008 	str	r1, [r0, #8]
    c4d8:	e59f1010 	ldr	r1, [pc, #16]	; c4f0 <_ZN7CLogger10InitializeEP7CDevice+0x20>
    c4dc:	e3a02003 	mov	r2, #3
    c4e0:	e59f300c 	ldr	r3, [pc, #12]	; c4f4 <_ZN7CLogger10InitializeEP7CDevice+0x24>
    c4e4:	ebffffed 	bl	c4a0 <_ZN7CLogger5WriteEPKc12TLogSeverityS1_z>
    c4e8:	e3a00001 	mov	r0, #1
    c4ec:	e8bd8008 	pop	{r3, pc}
    c4f0:	0000fc4c 	andeq	pc, r0, ip, asr #24
    c4f4:	0000fc54 	andeq	pc, r0, r4, asr ip	; <UNPREDICTABLE>

0000c4f8 <_ZN13CSerialDeviceC1Ev>:
    c4f8:	e92d4010 	push	{r4, lr}
    c4fc:	e1a04000 	mov	r4, r0
    c500:	eb000870 	bl	e6c8 <_ZN7CDeviceC1Ev>
    c504:	e1a00004 	mov	r0, r4
    c508:	e59f3034 	ldr	r3, [pc, #52]	; c544 <_ZN13CSerialDeviceC1Ev+0x4c>
    c50c:	e4803004 	str	r3, [r0], #4
    c510:	e3a0100e 	mov	r1, #14
    c514:	e3a02004 	mov	r2, #4
    c518:	e3a03000 	mov	r3, #0
    c51c:	ebfff35d 	bl	9298 <_ZN8CGPIOPinC1Ej9TGPIOModeP12CGPIOManager>
    c520:	e2840024 	add	r0, r4, #36	; 0x24
    c524:	e3a0100f 	mov	r1, #15
    c528:	e3a02004 	mov	r2, #4
    c52c:	e3a03000 	mov	r3, #0
    c530:	ebfff358 	bl	9298 <_ZN8CGPIOPinC1Ej9TGPIOModeP12CGPIOManager>
    c534:	e3a03001 	mov	r3, #1
    c538:	e5843044 	str	r3, [r4, #68]	; 0x44
    c53c:	e1a00004 	mov	r0, r4
    c540:	e8bd8010 	pop	{r4, pc}
    c544:	0000fc70 	andeq	pc, r0, r0, ror ip	; <UNPREDICTABLE>

0000c548 <_ZN13CSerialDevice10InitializeEj>:
    c548:	e92d40f0 	push	{r4, r5, r6, r7, lr}
    c54c:	e24dd02c 	sub	sp, sp, #44	; 0x2c
    c550:	e1a07000 	mov	r7, r0
    c554:	e1a04001 	mov	r4, r1
    c558:	e28d000c 	add	r0, sp, #12
    c55c:	ebfff0b0 	bl	8824 <_ZN16CBcmPropertyTagsC1Ev>
    c560:	e3a03002 	mov	r3, #2
    c564:	e58d3020 	str	r3, [sp, #32]
    c568:	e3a03000 	mov	r3, #0
    c56c:	e58d3000 	str	r3, [sp]
    c570:	e28d000c 	add	r0, sp, #12
    c574:	e59f1124 	ldr	r1, [pc, #292]	; c6a0 <_ZN13CSerialDevice10InitializeEj+0x158>
    c578:	e28d2014 	add	r2, sp, #20
    c57c:	e3a03014 	mov	r3, #20
    c580:	ebfff0b2 	bl	8850 <_ZN16CBcmPropertyTags6GetTagEjPvjj>
    c584:	e3500000 	cmp	r0, #0
    c588:	059f3114 	ldreq	r3, [pc, #276]	; c6a4 <_ZN13CSerialDevice10InitializeEj+0x15c>
    c58c:	058d3024 	streq	r3, [sp, #36]	; 0x24
    c590:	e2442f4b 	sub	r2, r4, #300	; 0x12c
    c594:	e59f310c 	ldr	r3, [pc, #268]	; c6a8 <_ZN13CSerialDevice10InitializeEj+0x160>
    c598:	e1520003 	cmp	r2, r3
    c59c:	9a000003 	bls	c5b0 <_ZN13CSerialDevice10InitializeEj+0x68>
    c5a0:	e59f0104 	ldr	r0, [pc, #260]	; c6ac <_ZN13CSerialDevice10InitializeEj+0x164>
    c5a4:	e59f1104 	ldr	r1, [pc, #260]	; c6b0 <_ZN13CSerialDevice10InitializeEj+0x168>
    c5a8:	e3a0206b 	mov	r2, #107	; 0x6b
    c5ac:	ebfffd7b 	bl	bba0 <assertion_failed>
    c5b0:	e1a06204 	lsl	r6, r4, #4
    c5b4:	e59d0024 	ldr	r0, [sp, #36]	; 0x24
    c5b8:	e1a01006 	mov	r1, r6
    c5bc:	ebfff3a6 	bl	945c <__aeabi_uidiv>
    c5c0:	e1a05000 	mov	r5, r0
    c5c4:	e3500801 	cmp	r0, #65536	; 0x10000
    c5c8:	3a000003 	bcc	c5dc <_ZN13CSerialDevice10InitializeEj+0x94>
    c5cc:	e59f00e0 	ldr	r0, [pc, #224]	; c6b4 <_ZN13CSerialDevice10InitializeEj+0x16c>
    c5d0:	e59f10d8 	ldr	r1, [pc, #216]	; c6b0 <_ZN13CSerialDevice10InitializeEj+0x168>
    c5d4:	e3a0206e 	mov	r2, #110	; 0x6e
    c5d8:	ebfffd70 	bl	bba0 <assertion_failed>
    c5dc:	e59d0024 	ldr	r0, [sp, #36]	; 0x24
    c5e0:	e1a01006 	mov	r1, r6
    c5e4:	ebfff3a0 	bl	946c <__aeabi_uidivmod>
    c5e8:	e1a00181 	lsl	r0, r1, #3
    c5ec:	e1a01004 	mov	r1, r4
    c5f0:	ebfff399 	bl	945c <__aeabi_uidiv>
    c5f4:	e2004001 	and	r4, r0, #1
    c5f8:	e08440a0 	add	r4, r4, r0, lsr #1
    c5fc:	e354003f 	cmp	r4, #63	; 0x3f
    c600:	9a000003 	bls	c614 <_ZN13CSerialDevice10InitializeEj+0xcc>
    c604:	e59f00ac 	ldr	r0, [pc, #172]	; c6b8 <_ZN13CSerialDevice10InitializeEj+0x170>
    c608:	e59f10a0 	ldr	r1, [pc, #160]	; c6b0 <_ZN13CSerialDevice10InitializeEj+0x168>
    c60c:	e3a02071 	mov	r2, #113	; 0x71
    c610:	ebfffd62 	bl	bba0 <assertion_failed>
    c614:	e3a03000 	mov	r3, #0
    c618:	ee073fba 	mcr	15, 0, r3, cr7, cr10, {5}
    c61c:	e59f0098 	ldr	r0, [pc, #152]	; c6bc <_ZN13CSerialDevice10InitializeEj+0x174>
    c620:	e3a01000 	mov	r1, #0
    c624:	ebfff399 	bl	9490 <write32>
    c628:	e59f0090 	ldr	r0, [pc, #144]	; c6c0 <_ZN13CSerialDevice10InitializeEj+0x178>
    c62c:	e59f1090 	ldr	r1, [pc, #144]	; c6c4 <_ZN13CSerialDevice10InitializeEj+0x17c>
    c630:	ebfff396 	bl	9490 <write32>
    c634:	e59f008c 	ldr	r0, [pc, #140]	; c6c8 <_ZN13CSerialDevice10InitializeEj+0x180>
    c638:	e1a01005 	mov	r1, r5
    c63c:	ebfff393 	bl	9490 <write32>
    c640:	e59f0084 	ldr	r0, [pc, #132]	; c6cc <_ZN13CSerialDevice10InitializeEj+0x184>
    c644:	e1a01004 	mov	r1, r4
    c648:	ebfff390 	bl	9490 <write32>
    c64c:	e59f007c 	ldr	r0, [pc, #124]	; c6d0 <_ZN13CSerialDevice10InitializeEj+0x188>
    c650:	e3a01060 	mov	r1, #96	; 0x60
    c654:	ebfff38d 	bl	9490 <write32>
    c658:	e59f0074 	ldr	r0, [pc, #116]	; c6d4 <_ZN13CSerialDevice10InitializeEj+0x18c>
    c65c:	e3a01000 	mov	r1, #0
    c660:	ebfff38a 	bl	9490 <write32>
    c664:	e59f006c 	ldr	r0, [pc, #108]	; c6d8 <_ZN13CSerialDevice10InitializeEj+0x190>
    c668:	e59f106c 	ldr	r1, [pc, #108]	; c6dc <_ZN13CSerialDevice10InitializeEj+0x194>
    c66c:	ebfff387 	bl	9490 <write32>
    c670:	e3a03000 	mov	r3, #0
    c674:	ee073fba 	mcr	15, 0, r3, cr7, cr10, {5}
    c678:	ebfffea5 	bl	c114 <_ZN18CDeviceNameService3GetEv>
    c67c:	e59f105c 	ldr	r1, [pc, #92]	; c6e0 <_ZN13CSerialDevice10InitializeEj+0x198>
    c680:	e1a02007 	mov	r2, r7
    c684:	e3a03000 	mov	r3, #0
    c688:	ebfffe24 	bl	bf20 <_ZN18CDeviceNameService9AddDeviceEPKcP7CDevicei>
    c68c:	e28d000c 	add	r0, sp, #12
    c690:	ebfff069 	bl	883c <_ZN16CBcmPropertyTagsD1Ev>
    c694:	e3a00001 	mov	r0, #1
    c698:	e28dd02c 	add	sp, sp, #44	; 0x2c
    c69c:	e8bd80f0 	pop	{r4, r5, r6, r7, pc}
    c6a0:	00030002 	andeq	r0, r3, r2
    c6a4:	002dc6c0 	eoreq	ip, sp, r0, asr #13
    c6a8:	0001c0d4 	ldrdeq	ip, [r1], -r4
    c6ac:	0000fc88 	andeq	pc, r0, r8, lsl #25
    c6b0:	0000fcb0 			; <UNDEFINED> instruction: 0x0000fcb0
    c6b4:	0000fcbc 			; <UNDEFINED> instruction: 0x0000fcbc
    c6b8:	0000fcd0 	ldrdeq	pc, [r0], -r0
    c6bc:	20201038 	eorcs	r1, r0, r8, lsr r0
    c6c0:	20201044 	eorcs	r1, r0, r4, asr #32
    c6c4:	000007ff 	strdeq	r0, [r0], -pc	; <UNPREDICTABLE>
    c6c8:	20201024 	eorcs	r1, r0, r4, lsr #32
    c6cc:	20201028 	eorcs	r1, r0, r8, lsr #32
    c6d0:	2020102c 	eorcs	r1, r0, ip, lsr #32
    c6d4:	20201034 	eorcs	r1, r0, r4, lsr r0
    c6d8:	20201030 	eorcs	r1, r0, r0, lsr r0
    c6dc:	00000301 	andeq	r0, r0, r1, lsl #6
    c6e0:	0000fce4 	andeq	pc, r0, r4, ror #25

0000c6e4 <_ZN13CSerialDevice5WriteEh>:
    c6e4:	e92d4038 	push	{r3, r4, r5, lr}
    c6e8:	e1a05001 	mov	r5, r1
    c6ec:	e59f401c 	ldr	r4, [pc, #28]	; c710 <_ZN13CSerialDevice5WriteEh+0x2c>
    c6f0:	e1a00004 	mov	r0, r4
    c6f4:	ebfff363 	bl	9488 <read32>
    c6f8:	e3100020 	tst	r0, #32
    c6fc:	1afffffb 	bne	c6f0 <_ZN13CSerialDevice5WriteEh+0xc>
    c700:	e59f000c 	ldr	r0, [pc, #12]	; c714 <_ZN13CSerialDevice5WriteEh+0x30>
    c704:	e1a01005 	mov	r1, r5
    c708:	ebfff360 	bl	9490 <write32>
    c70c:	e8bd8038 	pop	{r3, r4, r5, pc}
    c710:	20201018 	eorcs	r1, r0, r8, lsl r0
    c714:	20201000 	eorcs	r1, r0, r0

0000c718 <_ZN13CSerialDevice5WriteEPKvj>:
    c718:	e92d41f0 	push	{r4, r5, r6, r7, r8, lr}
    c71c:	e1a06000 	mov	r6, r0
    c720:	e1a04001 	mov	r4, r1
    c724:	e1a07002 	mov	r7, r2
    c728:	e5903044 	ldr	r3, [r0, #68]	; 0x44
    c72c:	e3530000 	cmp	r3, #0
    c730:	0a000000 	beq	c738 <_ZN13CSerialDevice5WriteEPKvj+0x20>
    c734:	ebfff450 	bl	987c <EnterCritical>
    c738:	e3a03000 	mov	r3, #0
    c73c:	ee073fba 	mcr	15, 0, r3, cr7, cr10, {5}
    c740:	e3540000 	cmp	r4, #0
    c744:	1a000003 	bne	c758 <_ZN13CSerialDevice5WriteEPKvj+0x40>
    c748:	e59f006c 	ldr	r0, [pc, #108]	; c7bc <_ZN13CSerialDevice5WriteEPKvj+0xa4>
    c74c:	e59f106c 	ldr	r1, [pc, #108]	; c7c0 <_ZN13CSerialDevice5WriteEPKvj+0xa8>
    c750:	e3a0208b 	mov	r2, #139	; 0x8b
    c754:	ebfffd11 	bl	bba0 <assertion_failed>
    c758:	e3570000 	cmp	r7, #0
    c75c:	0a00000d 	beq	c798 <_ZN13CSerialDevice5WriteEPKvj+0x80>
    c760:	e1a05007 	mov	r5, r7
    c764:	e3a0800d 	mov	r8, #13
    c768:	e1a00006 	mov	r0, r6
    c76c:	e5d41000 	ldrb	r1, [r4]
    c770:	ebffffdb 	bl	c6e4 <_ZN13CSerialDevice5WriteEh>
    c774:	e4d43001 	ldrb	r3, [r4], #1
    c778:	e353000a 	cmp	r3, #10
    c77c:	1a000002 	bne	c78c <_ZN13CSerialDevice5WriteEPKvj+0x74>
    c780:	e1a00006 	mov	r0, r6
    c784:	e1a01008 	mov	r1, r8
    c788:	ebffffd5 	bl	c6e4 <_ZN13CSerialDevice5WriteEh>
    c78c:	e2555001 	subs	r5, r5, #1
    c790:	1afffff4 	bne	c768 <_ZN13CSerialDevice5WriteEPKvj+0x50>
    c794:	ea000000 	b	c79c <_ZN13CSerialDevice5WriteEPKvj+0x84>
    c798:	e3a07000 	mov	r7, #0
    c79c:	e3a03000 	mov	r3, #0
    c7a0:	ee073fba 	mcr	15, 0, r3, cr7, cr10, {5}
    c7a4:	e5963044 	ldr	r3, [r6, #68]	; 0x44
    c7a8:	e3530000 	cmp	r3, #0
    c7ac:	0a000000 	beq	c7b4 <_ZN13CSerialDevice5WriteEPKvj+0x9c>
    c7b0:	ebfff441 	bl	98bc <LeaveCritical>
    c7b4:	e1a00007 	mov	r0, r7
    c7b8:	e8bd81f0 	pop	{r4, r5, r6, r7, r8, pc}
    c7bc:	0000fcec 	andeq	pc, r0, ip, ror #25
    c7c0:	0000fcb0 			; <UNDEFINED> instruction: 0x0000fcb0

0000c7c4 <_ZN13CSerialDeviceD1Ev>:
    c7c4:	e92d4038 	push	{r3, r4, r5, lr}
    c7c8:	e1a04000 	mov	r4, r0
    c7cc:	e1a05000 	mov	r5, r0
    c7d0:	e59f3048 	ldr	r3, [pc, #72]	; c820 <_ZN13CSerialDeviceD1Ev+0x5c>
    c7d4:	e4853024 	str	r3, [r5], #36	; 0x24
    c7d8:	e3a03000 	mov	r3, #0
    c7dc:	ee073fba 	mcr	15, 0, r3, cr7, cr10, {5}
    c7e0:	e59f003c 	ldr	r0, [pc, #60]	; c824 <_ZN13CSerialDeviceD1Ev+0x60>
    c7e4:	e3a01000 	mov	r1, #0
    c7e8:	ebfff328 	bl	9490 <write32>
    c7ec:	e59f0034 	ldr	r0, [pc, #52]	; c828 <_ZN13CSerialDeviceD1Ev+0x64>
    c7f0:	e3a01000 	mov	r1, #0
    c7f4:	ebfff325 	bl	9490 <write32>
    c7f8:	e3a03000 	mov	r3, #0
    c7fc:	ee073fba 	mcr	15, 0, r3, cr7, cr10, {5}
    c800:	e1a00005 	mov	r0, r5
    c804:	ebfff064 	bl	899c <_ZN8CGPIOPinD1Ev>
    c808:	e2840004 	add	r0, r4, #4
    c80c:	ebfff062 	bl	899c <_ZN8CGPIOPinD1Ev>
    c810:	e1a00004 	mov	r0, r4
    c814:	eb000799 	bl	e680 <_ZN7CDeviceD1Ev>
    c818:	e1a00004 	mov	r0, r4
    c81c:	e8bd8038 	pop	{r3, r4, r5, pc}
    c820:	0000fc70 	andeq	pc, r0, r0, ror ip	; <UNPREDICTABLE>
    c824:	20201038 	eorcs	r1, r0, r8, lsr r0
    c828:	20201030 	eorcs	r1, r0, r0, lsr r0

0000c82c <_ZN13CSerialDeviceD0Ev>:
    c82c:	e92d4010 	push	{r4, lr}
    c830:	e1a04000 	mov	r4, r0
    c834:	ebffffe2 	bl	c7c4 <_ZN13CSerialDeviceD1Ev>
    c838:	e1a00004 	mov	r0, r4
    c83c:	ebfff404 	bl	9854 <_ZdlPv>
    c840:	e1a00004 	mov	r0, r4
    c844:	e8bd8010 	pop	{r4, pc}

0000c848 <_ZN7CStringD1Ev>:
    c848:	e92d4010 	push	{r4, lr}
    c84c:	e1a04000 	mov	r4, r0
    c850:	e59f3020 	ldr	r3, [pc, #32]	; c878 <_ZN7CStringD1Ev+0x30>
    c854:	e5803000 	str	r3, [r0]
    c858:	e5900004 	ldr	r0, [r0, #4]
    c85c:	e3500000 	cmp	r0, #0
    c860:	0a000000 	beq	c868 <_ZN7CStringD1Ev+0x20>
    c864:	ebfff3ff 	bl	9868 <_ZdaPv>
    c868:	e3a03000 	mov	r3, #0
    c86c:	e5843004 	str	r3, [r4, #4]
    c870:	e1a00004 	mov	r0, r4
    c874:	e8bd8010 	pop	{r4, pc}
    c878:	0000fd00 	andeq	pc, r0, r0, lsl #26

0000c87c <_ZN7CStringD0Ev>:
    c87c:	e92d4010 	push	{r4, lr}
    c880:	e1a04000 	mov	r4, r0
    c884:	ebffffef 	bl	c848 <_ZN7CStringD1Ev>
    c888:	e1a00004 	mov	r0, r4
    c88c:	ebfff3f0 	bl	9854 <_ZdlPv>
    c890:	e1a00004 	mov	r0, r4
    c894:	e8bd8010 	pop	{r4, pc}

0000c898 <_ZN7CStringC1Ev>:
    c898:	e59f2010 	ldr	r2, [pc, #16]	; c8b0 <_ZN7CStringC1Ev+0x18>
    c89c:	e5802000 	str	r2, [r0]
    c8a0:	e3a02000 	mov	r2, #0
    c8a4:	e5802004 	str	r2, [r0, #4]
    c8a8:	e5802008 	str	r2, [r0, #8]
    c8ac:	e12fff1e 	bx	lr
    c8b0:	0000fd00 	andeq	pc, r0, r0, lsl #26

0000c8b4 <_ZN7CStringC1EPKc>:
    c8b4:	e92d4038 	push	{r3, r4, r5, lr}
    c8b8:	e1a04000 	mov	r4, r0
    c8bc:	e1a05001 	mov	r5, r1
    c8c0:	e59f3028 	ldr	r3, [pc, #40]	; c8f0 <_ZN7CStringC1EPKc+0x3c>
    c8c4:	e5803000 	str	r3, [r0]
    c8c8:	e1a00001 	mov	r0, r1
    c8cc:	ebfff6a4 	bl	a364 <strlen>
    c8d0:	e2800001 	add	r0, r0, #1
    c8d4:	e5840008 	str	r0, [r4, #8]
    c8d8:	ebfff3da 	bl	9848 <_Znaj>
    c8dc:	e5840004 	str	r0, [r4, #4]
    c8e0:	e1a01005 	mov	r1, r5
    c8e4:	ebfff6d8 	bl	a44c <strcpy>
    c8e8:	e1a00004 	mov	r0, r4
    c8ec:	e8bd8038 	pop	{r3, r4, r5, pc}
    c8f0:	0000fd00 	andeq	pc, r0, r0, lsl #26

0000c8f4 <_ZNK7CStringcvPKcEv>:
    c8f4:	e5900004 	ldr	r0, [r0, #4]
    c8f8:	e59f3008 	ldr	r3, [pc, #8]	; c908 <_ZNK7CStringcvPKcEv+0x14>
    c8fc:	e3500000 	cmp	r0, #0
    c900:	01a00003 	moveq	r0, r3
    c904:	e12fff1e 	bx	lr
    c908:	0000ea64 	andeq	lr, r0, r4, ror #20

0000c90c <_ZN7CStringaSEPKc>:
    c90c:	e92d4038 	push	{r3, r4, r5, lr}
    c910:	e1a04000 	mov	r4, r0
    c914:	e1a05001 	mov	r5, r1
    c918:	e5900004 	ldr	r0, [r0, #4]
    c91c:	e3500000 	cmp	r0, #0
    c920:	0a000000 	beq	c928 <_ZN7CStringaSEPKc+0x1c>
    c924:	ebfff3cf 	bl	9868 <_ZdaPv>
    c928:	e1a00005 	mov	r0, r5
    c92c:	ebfff68c 	bl	a364 <strlen>
    c930:	e2800001 	add	r0, r0, #1
    c934:	e5840008 	str	r0, [r4, #8]
    c938:	ebfff3c2 	bl	9848 <_Znaj>
    c93c:	e5840004 	str	r0, [r4, #4]
    c940:	e1a01005 	mov	r1, r5
    c944:	ebfff6c0 	bl	a44c <strcpy>
    c948:	e5940004 	ldr	r0, [r4, #4]
    c94c:	e8bd8038 	pop	{r3, r4, r5, pc}

0000c950 <_ZNK7CString9GetLengthEv>:
    c950:	e92d4008 	push	{r3, lr}
    c954:	e5900004 	ldr	r0, [r0, #4]
    c958:	e3500000 	cmp	r0, #0
    c95c:	0a000001 	beq	c968 <_ZNK7CString9GetLengthEv+0x18>
    c960:	ebfff67f 	bl	a364 <strlen>
    c964:	e8bd8008 	pop	{r3, pc}
    c968:	e3a00000 	mov	r0, #0
    c96c:	e8bd8008 	pop	{r3, pc}

0000c970 <_ZN7CString6AppendEPKc>:
    c970:	e92d4070 	push	{r4, r5, r6, lr}
    c974:	e1a04000 	mov	r4, r0
    c978:	e1a06001 	mov	r6, r1
    c97c:	e3a03001 	mov	r3, #1
    c980:	e5803008 	str	r3, [r0, #8]
    c984:	e5900004 	ldr	r0, [r0, #4]
    c988:	e3500000 	cmp	r0, #0
    c98c:	0a000003 	beq	c9a0 <_ZN7CString6AppendEPKc+0x30>
    c990:	ebfff673 	bl	a364 <strlen>
    c994:	e5943008 	ldr	r3, [r4, #8]
    c998:	e0830000 	add	r0, r3, r0
    c99c:	e5840008 	str	r0, [r4, #8]
    c9a0:	e1a00006 	mov	r0, r6
    c9a4:	ebfff66e 	bl	a364 <strlen>
    c9a8:	e5943008 	ldr	r3, [r4, #8]
    c9ac:	e0800003 	add	r0, r0, r3
    c9b0:	e5840008 	str	r0, [r4, #8]
    c9b4:	ebfff3a3 	bl	9848 <_Znaj>
    c9b8:	e1a05000 	mov	r5, r0
    c9bc:	e5941004 	ldr	r1, [r4, #4]
    c9c0:	e3510000 	cmp	r1, #0
    c9c4:	0a000005 	beq	c9e0 <_ZN7CString6AppendEPKc+0x70>
    c9c8:	ebfff69f 	bl	a44c <strcpy>
    c9cc:	e5940004 	ldr	r0, [r4, #4]
    c9d0:	e3500000 	cmp	r0, #0
    c9d4:	0a000003 	beq	c9e8 <_ZN7CString6AppendEPKc+0x78>
    c9d8:	ebfff3a2 	bl	9868 <_ZdaPv>
    c9dc:	ea000001 	b	c9e8 <_ZN7CString6AppendEPKc+0x78>
    c9e0:	e3a03000 	mov	r3, #0
    c9e4:	e5c03000 	strb	r3, [r0]
    c9e8:	e1a00005 	mov	r0, r5
    c9ec:	e1a01006 	mov	r1, r6
    c9f0:	ebfff6b7 	bl	a4d4 <strcat>
    c9f4:	e5845004 	str	r5, [r4, #4]
    c9f8:	e8bd8070 	pop	{r4, r5, r6, pc}

0000c9fc <_ZNK7CString7CompareEPKc>:
    c9fc:	e92d4008 	push	{r3, lr}
    ca00:	e5900004 	ldr	r0, [r0, #4]
    ca04:	ebfff662 	bl	a394 <strcmp>
    ca08:	e8bd8008 	pop	{r3, pc}

0000ca0c <_ZNK7CString4FindEc>:
    ca0c:	e5902004 	ldr	r2, [r0, #4]
    ca10:	e5d23000 	ldrb	r3, [r2]
    ca14:	e3530000 	cmp	r3, #0
    ca18:	0a00000d 	beq	ca54 <_ZNK7CString4FindEc+0x48>
    ca1c:	e6af3073 	sxtb	r3, r3
    ca20:	e1530001 	cmp	r3, r1
    ca24:	0a00000c 	beq	ca5c <_ZNK7CString4FindEc+0x50>
    ca28:	e3a00000 	mov	r0, #0
    ca2c:	ea000002 	b	ca3c <_ZNK7CString4FindEc+0x30>
    ca30:	e6af3073 	sxtb	r3, r3
    ca34:	e1530001 	cmp	r3, r1
    ca38:	012fff1e 	bxeq	lr
    ca3c:	e2800001 	add	r0, r0, #1
    ca40:	e5f23001 	ldrb	r3, [r2, #1]!
    ca44:	e3530000 	cmp	r3, #0
    ca48:	1afffff8 	bne	ca30 <_ZNK7CString4FindEc+0x24>
    ca4c:	e3e00000 	mvn	r0, #0
    ca50:	e12fff1e 	bx	lr
    ca54:	e3e00000 	mvn	r0, #0
    ca58:	e12fff1e 	bx	lr
    ca5c:	e3a00000 	mov	r0, #0
    ca60:	e12fff1e 	bx	lr

0000ca64 <_ZN7CString12ReserveSpaceEm>:
    ca64:	e92d40f8 	push	{r3, r4, r5, r6, r7, lr}
    ca68:	e1a04000 	mov	r4, r0
    ca6c:	e3510000 	cmp	r1, #0
    ca70:	08bd80f8 	popeq	{r3, r4, r5, r6, r7, pc}
    ca74:	e590500c 	ldr	r5, [r0, #12]
    ca78:	e5903004 	ldr	r3, [r0, #4]
    ca7c:	e0635005 	rsb	r5, r3, r5
    ca80:	e0811005 	add	r1, r1, r5
    ca84:	e2812001 	add	r2, r1, #1
    ca88:	e5903008 	ldr	r3, [r0, #8]
    ca8c:	e1520003 	cmp	r2, r3
    ca90:	98bd80f8 	popls	{r3, r4, r5, r6, r7, pc}
    ca94:	e2817041 	add	r7, r1, #65	; 0x41
    ca98:	e1a00007 	mov	r0, r7
    ca9c:	ebfff369 	bl	9848 <_Znaj>
    caa0:	e1a06000 	mov	r6, r0
    caa4:	e594300c 	ldr	r3, [r4, #12]
    caa8:	e3a02000 	mov	r2, #0
    caac:	e5c32000 	strb	r2, [r3]
    cab0:	e5941004 	ldr	r1, [r4, #4]
    cab4:	ebfff664 	bl	a44c <strcpy>
    cab8:	e5940004 	ldr	r0, [r4, #4]
    cabc:	e3500000 	cmp	r0, #0
    cac0:	0a000000 	beq	cac8 <_ZN7CString12ReserveSpaceEm+0x64>
    cac4:	ebfff367 	bl	9868 <_ZdaPv>
    cac8:	e5846004 	str	r6, [r4, #4]
    cacc:	e5847008 	str	r7, [r4, #8]
    cad0:	e0865005 	add	r5, r6, r5
    cad4:	e584500c 	str	r5, [r4, #12]
    cad8:	e8bd80f8 	pop	{r3, r4, r5, r6, r7, pc}

0000cadc <_ZN7CString7PutCharEcm>:
    cadc:	e92d4070 	push	{r4, r5, r6, lr}
    cae0:	e1a04000 	mov	r4, r0
    cae4:	e1a05001 	mov	r5, r1
    cae8:	e1a06002 	mov	r6, r2
    caec:	e1a01002 	mov	r1, r2
    caf0:	ebffffdb 	bl	ca64 <_ZN7CString12ReserveSpaceEm>
    caf4:	e2463001 	sub	r3, r6, #1
    caf8:	e3560000 	cmp	r6, #0
    cafc:	08bd8070 	popeq	{r4, r5, r6, pc}
    cb00:	e594200c 	ldr	r2, [r4, #12]
    cb04:	e2820001 	add	r0, r2, #1
    cb08:	e584000c 	str	r0, [r4, #12]
    cb0c:	e5c25000 	strb	r5, [r2]
    cb10:	e2433001 	sub	r3, r3, #1
    cb14:	e3730001 	cmn	r3, #1
    cb18:	1afffff8 	bne	cb00 <_ZN7CString7PutCharEcm+0x24>
    cb1c:	e8bd8070 	pop	{r4, r5, r6, pc}

0000cb20 <_ZN7CString9PutStringEPKc>:
    cb20:	e92d4070 	push	{r4, r5, r6, lr}
    cb24:	e1a04000 	mov	r4, r0
    cb28:	e1a06001 	mov	r6, r1
    cb2c:	e1a00001 	mov	r0, r1
    cb30:	ebfff60b 	bl	a364 <strlen>
    cb34:	e1a05000 	mov	r5, r0
    cb38:	e1a00004 	mov	r0, r4
    cb3c:	e1a01005 	mov	r1, r5
    cb40:	ebffffc7 	bl	ca64 <_ZN7CString12ReserveSpaceEm>
    cb44:	e594000c 	ldr	r0, [r4, #12]
    cb48:	e1a01006 	mov	r1, r6
    cb4c:	ebfff63e 	bl	a44c <strcpy>
    cb50:	e594300c 	ldr	r3, [r4, #12]
    cb54:	e0835005 	add	r5, r3, r5
    cb58:	e584500c 	str	r5, [r4, #12]
    cb5c:	e8bd8070 	pop	{r4, r5, r6, pc}

0000cb60 <_ZN7CString4ntoaEPcmji>:
    cb60:	e92d4ff8 	push	{r3, r4, r5, r6, r7, r8, r9, sl, fp, lr}
    cb64:	e1a0b000 	mov	fp, r0
    cb68:	e1a06001 	mov	r6, r1
    cb6c:	e1a07002 	mov	r7, r2
    cb70:	e1a0a003 	mov	sl, r3
    cb74:	e1510002 	cmp	r1, r2
    cb78:	23a04001 	movcs	r4, #1
    cb7c:	2a000003 	bcs	cb90 <_ZN7CString4ntoaEPcmji+0x30>
    cb80:	e1a05001 	mov	r5, r1
    cb84:	e3a04001 	mov	r4, #1
    cb88:	e1a0900b 	mov	r9, fp
    cb8c:	ea000007 	b	cbb0 <_ZN7CString4ntoaEPcmji+0x50>
    cb90:	e0040497 	mul	r4, r7, r4
    cb94:	e1a00006 	mov	r0, r6
    cb98:	e1a01004 	mov	r1, r4
    cb9c:	ebfff22e 	bl	945c <__aeabi_uidiv>
    cba0:	e1a05000 	mov	r5, r0
    cba4:	e1500007 	cmp	r0, r7
    cba8:	2afffff8 	bcs	cb90 <_ZN7CString4ntoaEPcmji+0x30>
    cbac:	eafffff5 	b	cb88 <_ZN7CString4ntoaEPcmji+0x28>
    cbb0:	e1a00006 	mov	r0, r6
    cbb4:	e1a01004 	mov	r1, r4
    cbb8:	ebfff22b 	bl	946c <__aeabi_uidivmod>
    cbbc:	e1a06001 	mov	r6, r1
    cbc0:	e2898001 	add	r8, r9, #1
    cbc4:	e3550009 	cmp	r5, #9
    cbc8:	92855030 	addls	r5, r5, #48	; 0x30
    cbcc:	96ef5075 	uxtbls	r5, r5
    cbd0:	9a000005 	bls	cbec <_ZN7CString4ntoaEPcmji+0x8c>
    cbd4:	e35a0000 	cmp	sl, #0
    cbd8:	03a03020 	moveq	r3, #32
    cbdc:	13a03000 	movne	r3, #0
    cbe0:	e2855037 	add	r5, r5, #55	; 0x37
    cbe4:	e0835005 	add	r5, r3, r5
    cbe8:	e6ef5075 	uxtb	r5, r5
    cbec:	e5485001 	strb	r5, [r8, #-1]
    cbf0:	e1a00004 	mov	r0, r4
    cbf4:	e1a01007 	mov	r1, r7
    cbf8:	ebfff217 	bl	945c <__aeabi_uidiv>
    cbfc:	e2504000 	subs	r4, r0, #0
    cc00:	0a000005 	beq	cc1c <_ZN7CString4ntoaEPcmji+0xbc>
    cc04:	e1a00006 	mov	r0, r6
    cc08:	e1a01004 	mov	r1, r4
    cc0c:	ebfff212 	bl	945c <__aeabi_uidiv>
    cc10:	e1a05000 	mov	r5, r0
    cc14:	e1a09008 	mov	r9, r8
    cc18:	eaffffe4 	b	cbb0 <_ZN7CString4ntoaEPcmji+0x50>
    cc1c:	e3a03000 	mov	r3, #0
    cc20:	e5c93001 	strb	r3, [r9, #1]
    cc24:	e1a0000b 	mov	r0, fp
    cc28:	e8bd8ff8 	pop	{r3, r4, r5, r6, r7, r8, r9, sl, fp, pc}

0000cc2c <_ZN7CString7FormatVEPKcSt9__va_list>:
    cc2c:	e92d4ff0 	push	{r4, r5, r6, r7, r8, r9, sl, fp, lr}
    cc30:	e24dd014 	sub	sp, sp, #20
    cc34:	e1a06000 	mov	r6, r0
    cc38:	e1a05001 	mov	r5, r1
    cc3c:	e1a08002 	mov	r8, r2
    cc40:	e5900004 	ldr	r0, [r0, #4]
    cc44:	e3500000 	cmp	r0, #0
    cc48:	0a000000 	beq	cc50 <_ZN7CString7FormatVEPKcSt9__va_list+0x24>
    cc4c:	ebfff305 	bl	9868 <_ZdaPv>
    cc50:	e3a00040 	mov	r0, #64	; 0x40
    cc54:	e5860008 	str	r0, [r6, #8]
    cc58:	ebfff2fa 	bl	9848 <_Znaj>
    cc5c:	e5860004 	str	r0, [r6, #4]
    cc60:	e586000c 	str	r0, [r6, #12]
    cc64:	e3a07001 	mov	r7, #1
    cc68:	ea0000f2 	b	d038 <_ZN7CString7FormatVEPKcSt9__va_list+0x40c>
    cc6c:	e6af3071 	sxtb	r3, r1
    cc70:	e3530025 	cmp	r3, #37	; 0x25
    cc74:	1a0000ea 	bne	d024 <_ZN7CString7FormatVEPKcSt9__va_list+0x3f8>
    cc78:	e5d53001 	ldrb	r3, [r5, #1]
    cc7c:	e6af2073 	sxtb	r2, r3
    cc80:	e3520025 	cmp	r2, #37	; 0x25
    cc84:	1a000005 	bne	cca0 <_ZN7CString7FormatVEPKcSt9__va_list+0x74>
    cc88:	e1a00006 	mov	r0, r6
    cc8c:	e3a01025 	mov	r1, #37	; 0x25
    cc90:	e1a02007 	mov	r2, r7
    cc94:	ebffff90 	bl	cadc <_ZN7CString7PutCharEcm>
    cc98:	e2855002 	add	r5, r5, #2
    cc9c:	ea0000e5 	b	d038 <_ZN7CString7FormatVEPKcSt9__va_list+0x40c>
    cca0:	e6af3073 	sxtb	r3, r3
    cca4:	e353002d 	cmp	r3, #45	; 0x2d
    cca8:	12855001 	addne	r5, r5, #1
    ccac:	13a09000 	movne	r9, #0
    ccb0:	02855002 	addeq	r5, r5, #2
    ccb4:	01a09007 	moveq	r9, r7
    ccb8:	e1d530d0 	ldrsb	r3, [r5]
    ccbc:	e3530030 	cmp	r3, #48	; 0x30
    ccc0:	02855001 	addeq	r5, r5, #1
    ccc4:	01a0a007 	moveq	sl, r7
    ccc8:	13a0a000 	movne	sl, #0
    cccc:	e5d53000 	ldrb	r3, [r5]
    ccd0:	e2432030 	sub	r2, r3, #48	; 0x30
    ccd4:	e6ef2072 	uxtb	r2, r2
    ccd8:	e3520009 	cmp	r2, #9
    ccdc:	8a00000c 	bhi	cd14 <_ZN7CString7FormatVEPKcSt9__va_list+0xe8>
    cce0:	e2852001 	add	r2, r5, #1
    cce4:	e3a04000 	mov	r4, #0
    cce8:	e0844104 	add	r4, r4, r4, lsl #2
    ccec:	e6af3073 	sxtb	r3, r3
    ccf0:	e0834084 	add	r4, r3, r4, lsl #1
    ccf4:	e2444030 	sub	r4, r4, #48	; 0x30
    ccf8:	e1a05002 	mov	r5, r2
    ccfc:	e4d23001 	ldrb	r3, [r2], #1
    cd00:	e2431030 	sub	r1, r3, #48	; 0x30
    cd04:	e6ef1071 	uxtb	r1, r1
    cd08:	e3510009 	cmp	r1, #9
    cd0c:	9afffff5 	bls	cce8 <_ZN7CString7FormatVEPKcSt9__va_list+0xbc>
    cd10:	ea000000 	b	cd18 <_ZN7CString7FormatVEPKcSt9__va_list+0xec>
    cd14:	e3a04000 	mov	r4, #0
    cd18:	e6af3073 	sxtb	r3, r3
    cd1c:	e353006c 	cmp	r3, #108	; 0x6c
    cd20:	02855001 	addeq	r5, r5, #1
    cd24:	e5d50000 	ldrb	r0, [r5]
    cd28:	e6af3070 	sxtb	r3, r0
    cd2c:	e2433058 	sub	r3, r3, #88	; 0x58
    cd30:	e3530020 	cmp	r3, #32
    cd34:	979ff103 	ldrls	pc, [pc, r3, lsl #2]
    cd38:	ea0000b0 	b	d000 <_ZN7CString7FormatVEPKcSt9__va_list+0x3d4>
    cd3c:	0000cf68 	andeq	ip, r0, r8, ror #30
    cd40:	0000d000 	andeq	sp, r0, r0
    cd44:	0000d000 	andeq	sp, r0, r0
    cd48:	0000d000 	andeq	sp, r0, r0
    cd4c:	0000d000 	andeq	sp, r0, r0
    cd50:	0000d000 	andeq	sp, r0, r0
    cd54:	0000d000 	andeq	sp, r0, r0
    cd58:	0000d000 	andeq	sp, r0, r0
    cd5c:	0000d000 	andeq	sp, r0, r0
    cd60:	0000d000 	andeq	sp, r0, r0
    cd64:	0000d000 	andeq	sp, r0, r0
    cd68:	0000cdc8 	andeq	ip, r0, r8, asr #27
    cd6c:	0000ce3c 	andeq	ip, r0, ip, lsr lr
    cd70:	0000d000 	andeq	sp, r0, r0
    cd74:	0000d000 	andeq	sp, r0, r0
    cd78:	0000d000 	andeq	sp, r0, r0
    cd7c:	0000d000 	andeq	sp, r0, r0
    cd80:	0000d000 	andeq	sp, r0, r0
    cd84:	0000d000 	andeq	sp, r0, r0
    cd88:	0000d000 	andeq	sp, r0, r0
    cd8c:	0000d000 	andeq	sp, r0, r0
    cd90:	0000d000 	andeq	sp, r0, r0
    cd94:	0000d000 	andeq	sp, r0, r0
    cd98:	0000cdc0 	andeq	ip, r0, r0, asr #27
    cd9c:	0000d000 	andeq	sp, r0, r0
    cda0:	0000d000 	andeq	sp, r0, r0
    cda4:	0000d000 	andeq	sp, r0, r0
    cda8:	0000cef0 	strdeq	ip, [r0], -r0
    cdac:	0000d000 	andeq	sp, r0, r0
    cdb0:	0000cf70 	andeq	ip, r0, r0, ror pc
    cdb4:	0000d000 	andeq	sp, r0, r0
    cdb8:	0000d000 	andeq	sp, r0, r0
    cdbc:	0000cf68 	andeq	ip, r0, r8, ror #30
    cdc0:	e3a02008 	mov	r2, #8
    cdc4:	ea00006a 	b	cf74 <_ZN7CString7FormatVEPKcSt9__va_list+0x348>
    cdc8:	e288a004 	add	sl, r8, #4
    cdcc:	e5d88000 	ldrb	r8, [r8]
    cdd0:	e3590000 	cmp	r9, #0
    cdd4:	0a00000c 	beq	ce0c <_ZN7CString7FormatVEPKcSt9__va_list+0x1e0>
    cdd8:	e1a00006 	mov	r0, r6
    cddc:	e6af1078 	sxtb	r1, r8
    cde0:	e1a02007 	mov	r2, r7
    cde4:	ebffff3c 	bl	cadc <_ZN7CString7PutCharEcm>
    cde8:	e3540001 	cmp	r4, #1
    cdec:	91a0800a 	movls	r8, sl
    cdf0:	9a00008f 	bls	d034 <_ZN7CString7FormatVEPKcSt9__va_list+0x408>
    cdf4:	e1a00006 	mov	r0, r6
    cdf8:	e3a01020 	mov	r1, #32
    cdfc:	e2442001 	sub	r2, r4, #1
    ce00:	ebffff35 	bl	cadc <_ZN7CString7PutCharEcm>
    ce04:	e1a0800a 	mov	r8, sl
    ce08:	ea000089 	b	d034 <_ZN7CString7FormatVEPKcSt9__va_list+0x408>
    ce0c:	e3540001 	cmp	r4, #1
    ce10:	9a000003 	bls	ce24 <_ZN7CString7FormatVEPKcSt9__va_list+0x1f8>
    ce14:	e1a00006 	mov	r0, r6
    ce18:	e3a01020 	mov	r1, #32
    ce1c:	e2442001 	sub	r2, r4, #1
    ce20:	ebffff2d 	bl	cadc <_ZN7CString7PutCharEcm>
    ce24:	e1a00006 	mov	r0, r6
    ce28:	e6af1078 	sxtb	r1, r8
    ce2c:	e1a02007 	mov	r2, r7
    ce30:	ebffff29 	bl	cadc <_ZN7CString7PutCharEcm>
    ce34:	e1a0800a 	mov	r8, sl
    ce38:	ea00007d 	b	d034 <_ZN7CString7FormatVEPKcSt9__va_list+0x408>
    ce3c:	e5981000 	ldr	r1, [r8]
    ce40:	e2888004 	add	r8, r8, #4
    ce44:	e3510000 	cmp	r1, #0
    ce48:	aa000081 	bge	d054 <_ZN7CString7FormatVEPKcSt9__va_list+0x428>
    ce4c:	e28d0004 	add	r0, sp, #4
    ce50:	e2611000 	rsb	r1, r1, #0
    ce54:	e3a0200a 	mov	r2, #10
    ce58:	e3a03000 	mov	r3, #0
    ce5c:	ebffff3f 	bl	cb60 <_ZN7CString4ntoaEPcmji>
    ce60:	e28d0004 	add	r0, sp, #4
    ce64:	ebfff53e 	bl	a364 <strlen>
    ce68:	e280a001 	add	sl, r0, #1
    ce6c:	e3590000 	cmp	r9, #0
    ce70:	0a00000d 	beq	ceac <_ZN7CString7FormatVEPKcSt9__va_list+0x280>
    ce74:	e1a00006 	mov	r0, r6
    ce78:	e3a0102d 	mov	r1, #45	; 0x2d
    ce7c:	e1a02007 	mov	r2, r7
    ce80:	ebffff15 	bl	cadc <_ZN7CString7PutCharEcm>
    ce84:	e1a00006 	mov	r0, r6
    ce88:	e28d1004 	add	r1, sp, #4
    ce8c:	ebffff23 	bl	cb20 <_ZN7CString9PutStringEPKc>
    ce90:	e154000a 	cmp	r4, sl
    ce94:	9a000066 	bls	d034 <_ZN7CString7FormatVEPKcSt9__va_list+0x408>
    ce98:	e1a00006 	mov	r0, r6
    ce9c:	e3a01020 	mov	r1, #32
    cea0:	e06a2004 	rsb	r2, sl, r4
    cea4:	ebffff0c 	bl	cadc <_ZN7CString7PutCharEcm>
    cea8:	ea000061 	b	d034 <_ZN7CString7FormatVEPKcSt9__va_list+0x408>
    ceac:	e1a09007 	mov	r9, r7
    ceb0:	e154000a 	cmp	r4, sl
    ceb4:	9a000003 	bls	cec8 <_ZN7CString7FormatVEPKcSt9__va_list+0x29c>
    ceb8:	e1a00006 	mov	r0, r6
    cebc:	e3a01020 	mov	r1, #32
    cec0:	e06a2004 	rsb	r2, sl, r4
    cec4:	ebffff04 	bl	cadc <_ZN7CString7PutCharEcm>
    cec8:	e3590000 	cmp	r9, #0
    cecc:	0a000003 	beq	cee0 <_ZN7CString7FormatVEPKcSt9__va_list+0x2b4>
    ced0:	e1a00006 	mov	r0, r6
    ced4:	e3a0102d 	mov	r1, #45	; 0x2d
    ced8:	e1a02007 	mov	r2, r7
    cedc:	ebfffefe 	bl	cadc <_ZN7CString7PutCharEcm>
    cee0:	e1a00006 	mov	r0, r6
    cee4:	e28d1004 	add	r1, sp, #4
    cee8:	ebffff0c 	bl	cb20 <_ZN7CString9PutStringEPKc>
    ceec:	ea000050 	b	d034 <_ZN7CString7FormatVEPKcSt9__va_list+0x408>
    cef0:	e288a004 	add	sl, r8, #4
    cef4:	e5988000 	ldr	r8, [r8]
    cef8:	e1a00008 	mov	r0, r8
    cefc:	ebfff518 	bl	a364 <strlen>
    cf00:	e1a0b000 	mov	fp, r0
    cf04:	e3590000 	cmp	r9, #0
    cf08:	0a00000b 	beq	cf3c <_ZN7CString7FormatVEPKcSt9__va_list+0x310>
    cf0c:	e1a00006 	mov	r0, r6
    cf10:	e1a01008 	mov	r1, r8
    cf14:	ebffff01 	bl	cb20 <_ZN7CString9PutStringEPKc>
    cf18:	e15b0004 	cmp	fp, r4
    cf1c:	21a0800a 	movcs	r8, sl
    cf20:	2a000043 	bcs	d034 <_ZN7CString7FormatVEPKcSt9__va_list+0x408>
    cf24:	e1a00006 	mov	r0, r6
    cf28:	e3a01020 	mov	r1, #32
    cf2c:	e06b2004 	rsb	r2, fp, r4
    cf30:	ebfffee9 	bl	cadc <_ZN7CString7PutCharEcm>
    cf34:	e1a0800a 	mov	r8, sl
    cf38:	ea00003d 	b	d034 <_ZN7CString7FormatVEPKcSt9__va_list+0x408>
    cf3c:	e1500004 	cmp	r0, r4
    cf40:	2a000003 	bcs	cf54 <_ZN7CString7FormatVEPKcSt9__va_list+0x328>
    cf44:	e1a00006 	mov	r0, r6
    cf48:	e3a01020 	mov	r1, #32
    cf4c:	e06b2004 	rsb	r2, fp, r4
    cf50:	ebfffee1 	bl	cadc <_ZN7CString7PutCharEcm>
    cf54:	e1a00006 	mov	r0, r6
    cf58:	e1a01008 	mov	r1, r8
    cf5c:	ebfffeef 	bl	cb20 <_ZN7CString9PutStringEPKc>
    cf60:	e1a0800a 	mov	r8, sl
    cf64:	ea000032 	b	d034 <_ZN7CString7FormatVEPKcSt9__va_list+0x408>
    cf68:	e3a02010 	mov	r2, #16
    cf6c:	ea000000 	b	cf74 <_ZN7CString7FormatVEPKcSt9__va_list+0x348>
    cf70:	e3a0200a 	mov	r2, #10
    cf74:	e5981000 	ldr	r1, [r8]
    cf78:	e2888004 	add	r8, r8, #4
    cf7c:	e6af3070 	sxtb	r3, r0
    cf80:	e28d0004 	add	r0, sp, #4
    cf84:	e3530058 	cmp	r3, #88	; 0x58
    cf88:	13a03000 	movne	r3, #0
    cf8c:	03a03001 	moveq	r3, #1
    cf90:	ebfffef2 	bl	cb60 <_ZN7CString4ntoaEPcmji>
    cf94:	e28d0004 	add	r0, sp, #4
    cf98:	ebfff4f1 	bl	a364 <strlen>
    cf9c:	e1a0b000 	mov	fp, r0
    cfa0:	e3590000 	cmp	r9, #0
    cfa4:	0a000009 	beq	cfd0 <_ZN7CString7FormatVEPKcSt9__va_list+0x3a4>
    cfa8:	e1a00006 	mov	r0, r6
    cfac:	e28d1004 	add	r1, sp, #4
    cfb0:	ebfffeda 	bl	cb20 <_ZN7CString9PutStringEPKc>
    cfb4:	e15b0004 	cmp	fp, r4
    cfb8:	2a00001d 	bcs	d034 <_ZN7CString7FormatVEPKcSt9__va_list+0x408>
    cfbc:	e1a00006 	mov	r0, r6
    cfc0:	e3a01020 	mov	r1, #32
    cfc4:	e06b2004 	rsb	r2, fp, r4
    cfc8:	ebfffec3 	bl	cadc <_ZN7CString7PutCharEcm>
    cfcc:	ea000018 	b	d034 <_ZN7CString7FormatVEPKcSt9__va_list+0x408>
    cfd0:	e1500004 	cmp	r0, r4
    cfd4:	2a000005 	bcs	cff0 <_ZN7CString7FormatVEPKcSt9__va_list+0x3c4>
    cfd8:	e1a00006 	mov	r0, r6
    cfdc:	e35a0000 	cmp	sl, #0
    cfe0:	03a01020 	moveq	r1, #32
    cfe4:	13a01030 	movne	r1, #48	; 0x30
    cfe8:	e06b2004 	rsb	r2, fp, r4
    cfec:	ebfffeba 	bl	cadc <_ZN7CString7PutCharEcm>
    cff0:	e1a00006 	mov	r0, r6
    cff4:	e28d1004 	add	r1, sp, #4
    cff8:	ebfffec8 	bl	cb20 <_ZN7CString9PutStringEPKc>
    cffc:	ea00000c 	b	d034 <_ZN7CString7FormatVEPKcSt9__va_list+0x408>
    d000:	e1a00006 	mov	r0, r6
    d004:	e3a01025 	mov	r1, #37	; 0x25
    d008:	e1a02007 	mov	r2, r7
    d00c:	ebfffeb2 	bl	cadc <_ZN7CString7PutCharEcm>
    d010:	e1a00006 	mov	r0, r6
    d014:	e1d510d0 	ldrsb	r1, [r5]
    d018:	e1a02007 	mov	r2, r7
    d01c:	ebfffeae 	bl	cadc <_ZN7CString7PutCharEcm>
    d020:	ea000003 	b	d034 <_ZN7CString7FormatVEPKcSt9__va_list+0x408>
    d024:	e1a00006 	mov	r0, r6
    d028:	e6af1071 	sxtb	r1, r1
    d02c:	e1a02007 	mov	r2, r7
    d030:	ebfffea9 	bl	cadc <_ZN7CString7PutCharEcm>
    d034:	e2855001 	add	r5, r5, #1
    d038:	e5d51000 	ldrb	r1, [r5]
    d03c:	e3510000 	cmp	r1, #0
    d040:	1affff09 	bne	cc6c <_ZN7CString7FormatVEPKcSt9__va_list+0x40>
    d044:	e596300c 	ldr	r3, [r6, #12]
    d048:	e3a02000 	mov	r2, #0
    d04c:	e5c32000 	strb	r2, [r3]
    d050:	ea000009 	b	d07c <_ZN7CString7FormatVEPKcSt9__va_list+0x450>
    d054:	e28d0004 	add	r0, sp, #4
    d058:	e3a0200a 	mov	r2, #10
    d05c:	e3a03000 	mov	r3, #0
    d060:	ebfffebe 	bl	cb60 <_ZN7CString4ntoaEPcmji>
    d064:	e28d0004 	add	r0, sp, #4
    d068:	ebfff4bd 	bl	a364 <strlen>
    d06c:	e1a0a000 	mov	sl, r0
    d070:	e3590000 	cmp	r9, #0
    d074:	1affff82 	bne	ce84 <_ZN7CString7FormatVEPKcSt9__va_list+0x258>
    d078:	eaffff8c 	b	ceb0 <_ZN7CString7FormatVEPKcSt9__va_list+0x284>
    d07c:	e28dd014 	add	sp, sp, #20
    d080:	e8bd8ff0 	pop	{r4, r5, r6, r7, r8, r9, sl, fp, pc}

0000d084 <_ZN7CString6FormatEPKcz>:
    d084:	e92d000e 	push	{r1, r2, r3}
    d088:	e52de004 	push	{lr}		; (str lr, [sp, #-4]!)
    d08c:	e24dd008 	sub	sp, sp, #8
    d090:	e28d2010 	add	r2, sp, #16
    d094:	e58d2004 	str	r2, [sp, #4]
    d098:	e59d100c 	ldr	r1, [sp, #12]
    d09c:	ebfffee2 	bl	cc2c <_ZN7CString7FormatVEPKcSt9__va_list>
    d0a0:	e28dd008 	add	sp, sp, #8
    d0a4:	e49de004 	pop	{lr}		; (ldr lr, [sp], #4)
    d0a8:	e28dd00c 	add	sp, sp, #12
    d0ac:	e12fff1e 	bx	lr

0000d0b0 <DelayLoop>:
    d0b0:	e2500001 	subs	r0, r0, #1
    d0b4:	8afffffd 	bhi	d0b0 <DelayLoop>
    d0b8:	e1a0f00e 	mov	pc, lr
    d0bc:	e1a00000 	nop			; (mov r0, r0)

0000d0c0 <_ZN17CExceptionHandlerC1Ev>:
    d0c0:	e92d4010 	push	{r4, lr}
    d0c4:	e1a04000 	mov	r4, r0
    d0c8:	e59f3080 	ldr	r3, [pc, #128]	; d150 <_ZN17CExceptionHandlerC1Ev+0x90>
    d0cc:	e5933000 	ldr	r3, [r3]
    d0d0:	e3530000 	cmp	r3, #0
    d0d4:	0a000003 	beq	d0e8 <_ZN17CExceptionHandlerC1Ev+0x28>
    d0d8:	e59f0074 	ldr	r0, [pc, #116]	; d154 <_ZN17CExceptionHandlerC1Ev+0x94>
    d0dc:	e59f1074 	ldr	r1, [pc, #116]	; d158 <_ZN17CExceptionHandlerC1Ev+0x98>
    d0e0:	e3a0202e 	mov	r2, #46	; 0x2e
    d0e4:	ebfffaad 	bl	bba0 <assertion_failed>
    d0e8:	e59f3060 	ldr	r3, [pc, #96]	; d150 <_ZN17CExceptionHandlerC1Ev+0x90>
    d0ec:	e5834000 	str	r4, [r3]
    d0f0:	e3a03000 	mov	r3, #0
    d0f4:	e59f2060 	ldr	r2, [pc, #96]	; d15c <_ZN17CExceptionHandlerC1Ev+0x9c>
    d0f8:	e1a02142 	asr	r2, r2, #2
    d0fc:	e2422002 	sub	r2, r2, #2
    d100:	e38224ea 	orr	r2, r2, #-369098752	; 0xea000000
    d104:	e5832004 	str	r2, [r3, #4]
    d108:	e59f2050 	ldr	r2, [pc, #80]	; d160 <_ZN17CExceptionHandlerC1Ev+0xa0>
    d10c:	e1a02142 	asr	r2, r2, #2
    d110:	e2422002 	sub	r2, r2, #2
    d114:	e38224ea 	orr	r2, r2, #-369098752	; 0xea000000
    d118:	e583200c 	str	r2, [r3, #12]
    d11c:	e59f2040 	ldr	r2, [pc, #64]	; d164 <_ZN17CExceptionHandlerC1Ev+0xa4>
    d120:	e1a02142 	asr	r2, r2, #2
    d124:	e2422002 	sub	r2, r2, #2
    d128:	e38224ea 	orr	r2, r2, #-369098752	; 0xea000000
    d12c:	e5832010 	str	r2, [r3, #16]
    d130:	ee073f1a 	mcr	15, 0, r3, cr7, cr10, {0}
    d134:	ee073f9a 	mcr	15, 0, r3, cr7, cr10, {4}
    d138:	ee073f15 	mcr	15, 0, r3, cr7, cr5, {0}
    d13c:	ee073fd5 	mcr	15, 0, r3, cr7, cr5, {6}
    d140:	ee073f9a 	mcr	15, 0, r3, cr7, cr10, {4}
    d144:	ee073f95 	mcr	15, 0, r3, cr7, cr5, {4}
    d148:	e1a00004 	mov	r0, r4
    d14c:	e8bd8010 	pop	{r4, pc}
    d150:	0001010c 	andeq	r0, r1, ip, lsl #2
    d154:	0000eb0c 	andeq	lr, r0, ip, lsl #22
    d158:	0000fd10 	andeq	pc, r0, r0, lsl sp	; <UNPREDICTABLE>
    d15c:	0000d300 	andeq	sp, r0, r0, lsl #6
    d160:	0000d338 	andeq	sp, r0, r8, lsr r3
    d164:	0000d374 	andeq	sp, r0, r4, ror r3

0000d168 <_ZN17CExceptionHandlerD1Ev>:
    d168:	e3a02000 	mov	r2, #0
    d16c:	e59f3004 	ldr	r3, [pc, #4]	; d178 <_ZN17CExceptionHandlerD1Ev+0x10>
    d170:	e5832000 	str	r2, [r3]
    d174:	e12fff1e 	bx	lr
    d178:	0001010c 	andeq	r0, r1, ip, lsl #2

0000d17c <_ZN17CExceptionHandler5ThrowEj>:
    d17c:	e92d4010 	push	{r4, lr}
    d180:	e24dd008 	sub	sp, sp, #8
    d184:	e1a04001 	mov	r4, r1
    d188:	ebfffc10 	bl	c1d0 <_ZN7CLogger3GetEv>
    d18c:	e59f301c 	ldr	r3, [pc, #28]	; d1b0 <_ZN17CExceptionHandler5ThrowEj+0x34>
    d190:	e7933104 	ldr	r3, [r3, r4, lsl #2]
    d194:	e58d3000 	str	r3, [sp]
    d198:	e59f1014 	ldr	r1, [pc, #20]	; d1b4 <_ZN17CExceptionHandler5ThrowEj+0x38>
    d19c:	e3a02000 	mov	r2, #0
    d1a0:	e59f3010 	ldr	r3, [pc, #16]	; d1b8 <_ZN17CExceptionHandler5ThrowEj+0x3c>
    d1a4:	ebfffcbd 	bl	c4a0 <_ZN7CLogger5WriteEPKc12TLogSeverityS1_z>
    d1a8:	e28dd008 	add	sp, sp, #8
    d1ac:	e8bd8010 	pop	{r4, pc}
    d1b0:	000100a0 	andeq	r0, r1, r0, lsr #1
    d1b4:	0000fd08 	andeq	pc, r0, r8, lsl #26
    d1b8:	0000fd28 	andeq	pc, r0, r8, lsr #26

0000d1bc <_ZN17CExceptionHandler5ThrowEjP11TAbortFrame>:
    d1bc:	e92d47f0 	push	{r4, r5, r6, r7, r8, r9, sl, lr}
    d1c0:	e24dd020 	sub	sp, sp, #32
    d1c4:	e1a05001 	mov	r5, r1
    d1c8:	e1a04002 	mov	r4, r2
    d1cc:	e3510002 	cmp	r1, #2
    d1d0:	0a000002 	beq	d1e0 <_ZN17CExceptionHandler5ThrowEjP11TAbortFrame+0x24>
    d1d4:	e3510003 	cmp	r1, #3
    d1d8:	0a000003 	beq	d1ec <_ZN17CExceptionHandler5ThrowEjP11TAbortFrame+0x30>
    d1dc:	ea000005 	b	d1f8 <_ZN17CExceptionHandler5ThrowEjP11TAbortFrame+0x3c>
    d1e0:	ee15af30 	mrc	15, 0, sl, cr5, cr0, {1}
    d1e4:	ee169f50 	mrc	15, 0, r9, cr6, cr0, {2}
    d1e8:	ea000004 	b	d200 <_ZN17CExceptionHandler5ThrowEjP11TAbortFrame+0x44>
    d1ec:	ee15af10 	mrc	15, 0, sl, cr5, cr0, {0}
    d1f0:	ee169f10 	mrc	15, 0, r9, cr6, cr0, {0}
    d1f4:	ea000001 	b	d200 <_ZN17CExceptionHandler5ThrowEjP11TAbortFrame+0x44>
    d1f8:	e3a09000 	mov	r9, #0
    d1fc:	e1a0a009 	mov	sl, r9
    d200:	e3540000 	cmp	r4, #0
    d204:	1a000003 	bne	d218 <_ZN17CExceptionHandler5ThrowEjP11TAbortFrame+0x5c>
    d208:	e59f007c 	ldr	r0, [pc, #124]	; d28c <_ZN17CExceptionHandler5ThrowEjP11TAbortFrame+0xd0>
    d20c:	e59f107c 	ldr	r1, [pc, #124]	; d290 <_ZN17CExceptionHandler5ThrowEjP11TAbortFrame+0xd4>
    d210:	e3a0206c 	mov	r2, #108	; 0x6c
    d214:	ebfffa61 	bl	bba0 <assertion_failed>
    d218:	e5948040 	ldr	r8, [r4, #64]	; 0x40
    d21c:	e594603c 	ldr	r6, [r4, #60]	; 0x3c
    d220:	e5943044 	ldr	r3, [r4, #68]	; 0x44
    d224:	e203301f 	and	r3, r3, #31
    d228:	e3530012 	cmp	r3, #18
    d22c:	05948004 	ldreq	r8, [r4, #4]
    d230:	05946000 	ldreq	r6, [r4]
    d234:	e59f7058 	ldr	r7, [pc, #88]	; d294 <_ZN17CExceptionHandler5ThrowEjP11TAbortFrame+0xd8>
    d238:	e1a00006 	mov	r0, r6
    d23c:	e1a01007 	mov	r1, r7
    d240:	ebfffae5 	bl	bddc <_Z16debug_stacktracePKjPKc>
    d244:	ebfffbe1 	bl	c1d0 <_ZN7CLogger3GetEv>
    d248:	e59f3048 	ldr	r3, [pc, #72]	; d298 <_ZN17CExceptionHandler5ThrowEjP11TAbortFrame+0xdc>
    d24c:	e7933105 	ldr	r3, [r3, r5, lsl #2]
    d250:	e58d3000 	str	r3, [sp]
    d254:	e5943048 	ldr	r3, [r4, #72]	; 0x48
    d258:	e58d3004 	str	r3, [sp, #4]
    d25c:	e58da008 	str	sl, [sp, #8]
    d260:	e58d900c 	str	r9, [sp, #12]
    d264:	e58d6010 	str	r6, [sp, #16]
    d268:	e58d8014 	str	r8, [sp, #20]
    d26c:	e5943044 	ldr	r3, [r4, #68]	; 0x44
    d270:	e58d3018 	str	r3, [sp, #24]
    d274:	e1a01007 	mov	r1, r7
    d278:	e3a02000 	mov	r2, #0
    d27c:	e59f3018 	ldr	r3, [pc, #24]	; d29c <_ZN17CExceptionHandler5ThrowEjP11TAbortFrame+0xe0>
    d280:	ebfffc86 	bl	c4a0 <_ZN7CLogger5WriteEPKc12TLogSeverityS1_z>
    d284:	e28dd020 	add	sp, sp, #32
    d288:	e8bd87f0 	pop	{r4, r5, r6, r7, r8, r9, sl, pc}
    d28c:	0000fd38 	andeq	pc, r0, r8, lsr sp	; <UNPREDICTABLE>
    d290:	0000fd10 	andeq	pc, r0, r0, lsl sp	; <UNPREDICTABLE>
    d294:	0000fd08 	andeq	pc, r0, r8, lsl #26
    d298:	000100a0 	andeq	r0, r1, r0, lsr #1
    d29c:	0000fd44 	andeq	pc, r0, r4, asr #26

0000d2a0 <_ZN17CExceptionHandler3GetEv>:
    d2a0:	e92d4008 	push	{r3, lr}
    d2a4:	e59f3024 	ldr	r3, [pc, #36]	; d2d0 <_ZN17CExceptionHandler3GetEv+0x30>
    d2a8:	e5933000 	ldr	r3, [r3]
    d2ac:	e3530000 	cmp	r3, #0
    d2b0:	1a000003 	bne	d2c4 <_ZN17CExceptionHandler3GetEv+0x24>
    d2b4:	e59f0018 	ldr	r0, [pc, #24]	; d2d4 <_ZN17CExceptionHandler3GetEv+0x34>
    d2b8:	e59f1018 	ldr	r1, [pc, #24]	; d2d8 <_ZN17CExceptionHandler3GetEv+0x38>
    d2bc:	e3a02083 	mov	r2, #131	; 0x83
    d2c0:	ebfffa36 	bl	bba0 <assertion_failed>
    d2c4:	e59f3004 	ldr	r3, [pc, #4]	; d2d0 <_ZN17CExceptionHandler3GetEv+0x30>
    d2c8:	e5930000 	ldr	r0, [r3]
    d2cc:	e8bd8008 	pop	{r3, pc}
    d2d0:	0001010c 	andeq	r0, r1, ip, lsl #2
    d2d4:	0000ebf8 	strdeq	lr, [r0], -r8
    d2d8:	0000fd10 	andeq	pc, r0, r0, lsl sp	; <UNPREDICTABLE>

0000d2dc <ExceptionHandler>:
    d2dc:	e92d4038 	push	{r3, r4, r5, lr}
    d2e0:	e1a05000 	mov	r5, r0
    d2e4:	e1a04001 	mov	r4, r1
    d2e8:	e3a03000 	mov	r3, #0
    d2ec:	ee073fba 	mcr	15, 0, r3, cr7, cr10, {5}
    d2f0:	ebffffea 	bl	d2a0 <_ZN17CExceptionHandler3GetEv>
    d2f4:	e1a01005 	mov	r1, r5
    d2f8:	e1a02004 	mov	r2, r4
    d2fc:	ebffffae 	bl	d1bc <_ZN17CExceptionHandler5ThrowEjP11TAbortFrame>
    d300:	e8bd8038 	pop	{r3, r4, r5, pc}

0000d304 <UndefinedInstructionStub>:
    d304:	e24ee004 	sub	lr, lr, #4
    d308:	e92d4000 	stmfd	sp!, {lr}
    d30c:	e14fe000 	mrs	lr, SPSR
    d310:	e92d4000 	stmfd	sp!, {lr}
    d314:	e94d7fff 	stmdb	sp, {r0, r1, r2, r3, r4, r5, r6, r7, r8, r9, sl, fp, ip, sp, lr}^
    d318:	e24dd03c 	sub	sp, sp, #60	; 0x3c
    d31c:	e1a0100d 	mov	r1, sp
    d320:	f1020012 	cps	#18
    d324:	e1a0200d 	mov	r2, sp
    d328:	e1a0300e 	mov	r3, lr
    d32c:	f102001f 	cps	#31
    d330:	e1a0d001 	mov	sp, r1
    d334:	e92d000c 	push	{r2, r3}
    d338:	e1a0100d 	mov	r1, sp
    d33c:	e3a00001 	mov	r0, #1
    d340:	eaffffe5 	b	d2dc <ExceptionHandler>

0000d344 <PrefetchAbortStub>:
    d344:	e24ee004 	sub	lr, lr, #4
    d348:	e92d4000 	stmfd	sp!, {lr}
    d34c:	e14fe000 	mrs	lr, SPSR
    d350:	e92d4000 	stmfd	sp!, {lr}
    d354:	e94d7fff 	stmdb	sp, {r0, r1, r2, r3, r4, r5, r6, r7, r8, r9, sl, fp, ip, sp, lr}^
    d358:	e24dd03c 	sub	sp, sp, #60	; 0x3c
    d35c:	e1a0100d 	mov	r1, sp
    d360:	f1020012 	cps	#18
    d364:	e1a0200d 	mov	r2, sp
    d368:	e1a0300e 	mov	r3, lr
    d36c:	f102001f 	cps	#31
    d370:	e1a0d001 	mov	sp, r1
    d374:	e92d000c 	push	{r2, r3}
    d378:	e1a0100d 	mov	r1, sp
    d37c:	e3a00002 	mov	r0, #2
    d380:	eaffffd5 	b	d2dc <ExceptionHandler>

0000d384 <DataAbortStub>:
    d384:	e24ee008 	sub	lr, lr, #8
    d388:	e92d4000 	stmfd	sp!, {lr}
    d38c:	e14fe000 	mrs	lr, SPSR
    d390:	e92d4000 	stmfd	sp!, {lr}
    d394:	e94d7fff 	stmdb	sp, {r0, r1, r2, r3, r4, r5, r6, r7, r8, r9, sl, fp, ip, sp, lr}^
    d398:	e24dd03c 	sub	sp, sp, #60	; 0x3c
    d39c:	e1a0100d 	mov	r1, sp
    d3a0:	f1020012 	cps	#18
    d3a4:	e1a0200d 	mov	r2, sp
    d3a8:	e1a0300e 	mov	r3, lr
    d3ac:	f102001f 	cps	#31
    d3b0:	e1a0d001 	mov	sp, r1
    d3b4:	e92d000c 	push	{r2, r3}
    d3b8:	e1a0100d 	mov	r1, sp
    d3bc:	e3a00003 	mov	r0, #3
    d3c0:	eaffffc5 	b	d2dc <ExceptionHandler>

0000d3c4 <IRQStub>:
    d3c4:	e24ee004 	sub	lr, lr, #4
    d3c8:	e92d5fff 	push	{r0, r1, r2, r3, r4, r5, r6, r7, r8, r9, sl, fp, ip, lr}
    d3cc:	eb000114 	bl	d824 <InterruptHandler>
    d3d0:	e8fd9fff 	ldm	sp!, {r0, r1, r2, r3, r4, r5, r6, r7, r8, r9, sl, fp, ip, pc}^

0000d3d4 <_ZN16CInterruptSystemC1Ev>:
    d3d4:	e2402004 	sub	r2, r0, #4
    d3d8:	e3a03000 	mov	r3, #0
    d3dc:	e1a01003 	mov	r1, r3
    d3e0:	e5a21004 	str	r1, [r2, #4]!
    d3e4:	e5821120 	str	r1, [r2, #288]	; 0x120
    d3e8:	e2833001 	add	r3, r3, #1
    d3ec:	e3530048 	cmp	r3, #72	; 0x48
    d3f0:	1afffffa 	bne	d3e0 <_ZN16CInterruptSystemC1Ev+0xc>
    d3f4:	e59f3004 	ldr	r3, [pc, #4]	; d400 <_ZN16CInterruptSystemC1Ev+0x2c>
    d3f8:	e5830000 	str	r0, [r3]
    d3fc:	e12fff1e 	bx	lr
    d400:	00010110 	andeq	r0, r1, r0, lsl r1

0000d404 <_ZN16CInterruptSystemD1Ev>:
    d404:	e3a02000 	mov	r2, #0
    d408:	e59f3004 	ldr	r3, [pc, #4]	; d414 <_ZN16CInterruptSystemD1Ev+0x10>
    d40c:	e5832000 	str	r2, [r3]
    d410:	e12fff1e 	bx	lr
    d414:	00010110 	andeq	r0, r1, r0, lsl r1

0000d418 <_ZN16CInterruptSystem10InitializeEv>:
    d418:	e92d4010 	push	{r4, lr}
    d41c:	e3a03000 	mov	r3, #0
    d420:	e59f20b4 	ldr	r2, [pc, #180]	; d4dc <_ZN16CInterruptSystem10InitializeEv+0xc4>
    d424:	e1a02142 	asr	r2, r2, #2
    d428:	e2422002 	sub	r2, r2, #2
    d42c:	e38224ea 	orr	r2, r2, #-369098752	; 0xea000000
    d430:	e5832018 	str	r2, [r3, #24]
    d434:	ee073f1a 	mcr	15, 0, r3, cr7, cr10, {0}
    d438:	ee073f9a 	mcr	15, 0, r3, cr7, cr10, {4}
    d43c:	ee073f15 	mcr	15, 0, r3, cr7, cr5, {0}
    d440:	ee073fd5 	mcr	15, 0, r3, cr7, cr5, {6}
    d444:	ee073f9a 	mcr	15, 0, r3, cr7, cr10, {4}
    d448:	ee073f95 	mcr	15, 0, r3, cr7, cr5, {4}
    d44c:	ee073fba 	mcr	15, 0, r3, cr7, cr10, {5}
    d450:	e59f0088 	ldr	r0, [pc, #136]	; d4e0 <_ZN16CInterruptSystem10InitializeEv+0xc8>
    d454:	e3a01000 	mov	r1, #0
    d458:	ebfff00c 	bl	9490 <write32>
    d45c:	e59f0080 	ldr	r0, [pc, #128]	; d4e4 <_ZN16CInterruptSystem10InitializeEv+0xcc>
    d460:	e3e01000 	mvn	r1, #0
    d464:	ebfff009 	bl	9490 <write32>
    d468:	e59f0078 	ldr	r0, [pc, #120]	; d4e8 <_ZN16CInterruptSystem10InitializeEv+0xd0>
    d46c:	e3e01000 	mvn	r1, #0
    d470:	ebfff006 	bl	9490 <write32>
    d474:	e59f0070 	ldr	r0, [pc, #112]	; d4ec <_ZN16CInterruptSystem10InitializeEv+0xd4>
    d478:	e3e01000 	mvn	r1, #0
    d47c:	ebfff003 	bl	9490 <write32>
    d480:	e59f4068 	ldr	r4, [pc, #104]	; d4f0 <_ZN16CInterruptSystem10InitializeEv+0xd8>
    d484:	e1a00004 	mov	r0, r4
    d488:	ebffeffe 	bl	9488 <read32>
    d48c:	e1a01000 	mov	r1, r0
    d490:	e1a00004 	mov	r0, r4
    d494:	ebffeffd 	bl	9490 <write32>
    d498:	e2844004 	add	r4, r4, #4
    d49c:	e1a00004 	mov	r0, r4
    d4a0:	ebffeff8 	bl	9488 <read32>
    d4a4:	e1a01000 	mov	r1, r0
    d4a8:	e1a00004 	mov	r0, r4
    d4ac:	ebffeff7 	bl	9490 <write32>
    d4b0:	e2844004 	add	r4, r4, #4
    d4b4:	e1a00004 	mov	r0, r4
    d4b8:	ebffeff2 	bl	9488 <read32>
    d4bc:	e1a01000 	mov	r1, r0
    d4c0:	e1a00004 	mov	r0, r4
    d4c4:	ebffeff1 	bl	9490 <write32>
    d4c8:	e3a03000 	mov	r3, #0
    d4cc:	ee073fba 	mcr	15, 0, r3, cr7, cr10, {5}
    d4d0:	f1080080 	cpsie	i
    d4d4:	e3a00001 	mov	r0, #1
    d4d8:	e8bd8010 	pop	{r4, pc}
    d4dc:	0000d3ac 	andeq	sp, r0, ip, lsr #7
    d4e0:	2000b20c 	andcs	fp, r0, ip, lsl #4
    d4e4:	2000b21c 	andcs	fp, r0, ip, lsl r2
    d4e8:	2000b220 	andcs	fp, r0, r0, lsr #4
    d4ec:	2000b224 	andcs	fp, r0, r4, lsr #4
    d4f0:	2000b200 	andcs	fp, r0, r0, lsl #4

0000d4f4 <_ZN16CInterruptSystem9EnableIRQEj>:
    d4f4:	e92d4010 	push	{r4, lr}
    d4f8:	e1a04000 	mov	r4, r0
    d4fc:	e3a03000 	mov	r3, #0
    d500:	ee073fba 	mcr	15, 0, r3, cr7, cr10, {5}
    d504:	e3500047 	cmp	r0, #71	; 0x47
    d508:	9a000003 	bls	d51c <_ZN16CInterruptSystem9EnableIRQEj+0x28>
    d50c:	e59f0044 	ldr	r0, [pc, #68]	; d558 <_ZN16CInterruptSystem9EnableIRQEj+0x64>
    d510:	e59f1044 	ldr	r1, [pc, #68]	; d55c <_ZN16CInterruptSystem9EnableIRQEj+0x68>
    d514:	e3a0207b 	mov	r2, #123	; 0x7b
    d518:	ebfff9a0 	bl	bba0 <assertion_failed>
    d51c:	e354001f 	cmp	r4, #31
    d520:	9a000004 	bls	d538 <_ZN16CInterruptSystem9EnableIRQEj+0x44>
    d524:	e59f3034 	ldr	r3, [pc, #52]	; d560 <_ZN16CInterruptSystem9EnableIRQEj+0x6c>
    d528:	e59f0034 	ldr	r0, [pc, #52]	; d564 <_ZN16CInterruptSystem9EnableIRQEj+0x70>
    d52c:	e354003f 	cmp	r4, #63	; 0x3f
    d530:	91a00003 	movls	r0, r3
    d534:	ea000000 	b	d53c <_ZN16CInterruptSystem9EnableIRQEj+0x48>
    d538:	e59f0028 	ldr	r0, [pc, #40]	; d568 <_ZN16CInterruptSystem9EnableIRQEj+0x74>
    d53c:	e204401f 	and	r4, r4, #31
    d540:	e3a01001 	mov	r1, #1
    d544:	e1a01411 	lsl	r1, r1, r4
    d548:	ebffefd0 	bl	9490 <write32>
    d54c:	e3a03000 	mov	r3, #0
    d550:	ee073fba 	mcr	15, 0, r3, cr7, cr10, {5}
    d554:	e8bd8010 	pop	{r4, pc}
    d558:	0000fdcc 	andeq	pc, r0, ip, asr #27
    d55c:	0000fde0 	andeq	pc, r0, r0, ror #27
    d560:	2000b214 	andcs	fp, r0, r4, lsl r2
    d564:	2000b218 	andcs	fp, r0, r8, lsl r2
    d568:	2000b210 	andcs	fp, r0, r0, lsl r2

0000d56c <_ZN16CInterruptSystem10ConnectIRQEjPFvPvES0_>:
    d56c:	e92d41f0 	push	{r4, r5, r6, r7, r8, lr}
    d570:	e1a05000 	mov	r5, r0
    d574:	e1a04001 	mov	r4, r1
    d578:	e1a08002 	mov	r8, r2
    d57c:	e1a07003 	mov	r7, r3
    d580:	e3510047 	cmp	r1, #71	; 0x47
    d584:	9a000003 	bls	d598 <_ZN16CInterruptSystem10ConnectIRQEjPFvPvES0_+0x2c>
    d588:	e59f003c 	ldr	r0, [pc, #60]	; d5cc <_ZN16CInterruptSystem10ConnectIRQEjPFvPvES0_+0x60>
    d58c:	e59f103c 	ldr	r1, [pc, #60]	; d5d0 <_ZN16CInterruptSystem10ConnectIRQEjPFvPvES0_+0x64>
    d590:	e3a02063 	mov	r2, #99	; 0x63
    d594:	ebfff981 	bl	bba0 <assertion_failed>
    d598:	e0856104 	add	r6, r5, r4, lsl #2
    d59c:	e7953104 	ldr	r3, [r5, r4, lsl #2]
    d5a0:	e3530000 	cmp	r3, #0
    d5a4:	0a000003 	beq	d5b8 <_ZN16CInterruptSystem10ConnectIRQEjPFvPvES0_+0x4c>
    d5a8:	e59f0024 	ldr	r0, [pc, #36]	; d5d4 <_ZN16CInterruptSystem10ConnectIRQEjPFvPvES0_+0x68>
    d5ac:	e59f101c 	ldr	r1, [pc, #28]	; d5d0 <_ZN16CInterruptSystem10ConnectIRQEjPFvPvES0_+0x64>
    d5b0:	e3a02064 	mov	r2, #100	; 0x64
    d5b4:	ebfff979 	bl	bba0 <assertion_failed>
    d5b8:	e7858104 	str	r8, [r5, r4, lsl #2]
    d5bc:	e5867120 	str	r7, [r6, #288]	; 0x120
    d5c0:	e1a00004 	mov	r0, r4
    d5c4:	ebffffca 	bl	d4f4 <_ZN16CInterruptSystem9EnableIRQEj>
    d5c8:	e8bd81f0 	pop	{r4, r5, r6, r7, r8, pc}
    d5cc:	0000fdcc 	andeq	pc, r0, ip, asr #27
    d5d0:	0000fde0 	andeq	pc, r0, r0, ror #27
    d5d4:	0000fdf0 	strdeq	pc, [r0], -r0

0000d5d8 <_ZN16CInterruptSystem10DisableIRQEj>:
    d5d8:	e92d4010 	push	{r4, lr}
    d5dc:	e1a04000 	mov	r4, r0
    d5e0:	e3a03000 	mov	r3, #0
    d5e4:	ee073fba 	mcr	15, 0, r3, cr7, cr10, {5}
    d5e8:	e3500047 	cmp	r0, #71	; 0x47
    d5ec:	9a000003 	bls	d600 <_ZN16CInterruptSystem10DisableIRQEj+0x28>
    d5f0:	e59f0044 	ldr	r0, [pc, #68]	; d63c <_ZN16CInterruptSystem10DisableIRQEj+0x64>
    d5f4:	e59f1044 	ldr	r1, [pc, #68]	; d640 <_ZN16CInterruptSystem10DisableIRQEj+0x68>
    d5f8:	e3a02086 	mov	r2, #134	; 0x86
    d5fc:	ebfff967 	bl	bba0 <assertion_failed>
    d600:	e354001f 	cmp	r4, #31
    d604:	9a000004 	bls	d61c <_ZN16CInterruptSystem10DisableIRQEj+0x44>
    d608:	e59f3034 	ldr	r3, [pc, #52]	; d644 <_ZN16CInterruptSystem10DisableIRQEj+0x6c>
    d60c:	e59f0034 	ldr	r0, [pc, #52]	; d648 <_ZN16CInterruptSystem10DisableIRQEj+0x70>
    d610:	e354003f 	cmp	r4, #63	; 0x3f
    d614:	91a00003 	movls	r0, r3
    d618:	ea000000 	b	d620 <_ZN16CInterruptSystem10DisableIRQEj+0x48>
    d61c:	e59f0028 	ldr	r0, [pc, #40]	; d64c <_ZN16CInterruptSystem10DisableIRQEj+0x74>
    d620:	e204401f 	and	r4, r4, #31
    d624:	e3a01001 	mov	r1, #1
    d628:	e1a01411 	lsl	r1, r1, r4
    d62c:	ebffef97 	bl	9490 <write32>
    d630:	e3a03000 	mov	r3, #0
    d634:	ee073fba 	mcr	15, 0, r3, cr7, cr10, {5}
    d638:	e8bd8010 	pop	{r4, pc}
    d63c:	0000fdcc 	andeq	pc, r0, ip, asr #27
    d640:	0000fde0 	andeq	pc, r0, r0, ror #27
    d644:	2000b220 	andcs	fp, r0, r0, lsr #4
    d648:	2000b224 	andcs	fp, r0, r4, lsr #4
    d64c:	2000b21c 	andcs	fp, r0, ip, lsl r2

0000d650 <_ZN16CInterruptSystem13DisconnectIRQEj>:
    d650:	e92d4070 	push	{r4, r5, r6, lr}
    d654:	e1a05000 	mov	r5, r0
    d658:	e1a04001 	mov	r4, r1
    d65c:	e3510047 	cmp	r1, #71	; 0x47
    d660:	9a000003 	bls	d674 <_ZN16CInterruptSystem13DisconnectIRQEj+0x24>
    d664:	e59f0040 	ldr	r0, [pc, #64]	; d6ac <_ZN16CInterruptSystem13DisconnectIRQEj+0x5c>
    d668:	e59f1040 	ldr	r1, [pc, #64]	; d6b0 <_ZN16CInterruptSystem13DisconnectIRQEj+0x60>
    d66c:	e3a0206e 	mov	r2, #110	; 0x6e
    d670:	ebfff94a 	bl	bba0 <assertion_failed>
    d674:	e0856104 	add	r6, r5, r4, lsl #2
    d678:	e7953104 	ldr	r3, [r5, r4, lsl #2]
    d67c:	e3530000 	cmp	r3, #0
    d680:	1a000003 	bne	d694 <_ZN16CInterruptSystem13DisconnectIRQEj+0x44>
    d684:	e59f0028 	ldr	r0, [pc, #40]	; d6b4 <_ZN16CInterruptSystem13DisconnectIRQEj+0x64>
    d688:	e59f1020 	ldr	r1, [pc, #32]	; d6b0 <_ZN16CInterruptSystem13DisconnectIRQEj+0x60>
    d68c:	e3a0206f 	mov	r2, #111	; 0x6f
    d690:	ebfff942 	bl	bba0 <assertion_failed>
    d694:	e1a00004 	mov	r0, r4
    d698:	ebffffce 	bl	d5d8 <_ZN16CInterruptSystem10DisableIRQEj>
    d69c:	e3a03000 	mov	r3, #0
    d6a0:	e7853104 	str	r3, [r5, r4, lsl #2]
    d6a4:	e5863120 	str	r3, [r6, #288]	; 0x120
    d6a8:	e8bd8070 	pop	{r4, r5, r6, pc}
    d6ac:	0000fdcc 	andeq	pc, r0, ip, asr #27
    d6b0:	0000fde0 	andeq	pc, r0, r0, ror #27
    d6b4:	0000fe0c 	andeq	pc, r0, ip, lsl #28

0000d6b8 <_ZN16CInterruptSystem3GetEv>:
    d6b8:	e92d4008 	push	{r3, lr}
    d6bc:	e59f3024 	ldr	r3, [pc, #36]	; d6e8 <_ZN16CInterruptSystem3GetEv+0x30>
    d6c0:	e5933000 	ldr	r3, [r3]
    d6c4:	e3530000 	cmp	r3, #0
    d6c8:	1a000003 	bne	d6dc <_ZN16CInterruptSystem3GetEv+0x24>
    d6cc:	e59f0018 	ldr	r0, [pc, #24]	; d6ec <_ZN16CInterruptSystem3GetEv+0x34>
    d6d0:	e59f1018 	ldr	r1, [pc, #24]	; d6f0 <_ZN16CInterruptSystem3GetEv+0x38>
    d6d4:	e3a0208f 	mov	r2, #143	; 0x8f
    d6d8:	ebfff930 	bl	bba0 <assertion_failed>
    d6dc:	e59f3004 	ldr	r3, [pc, #4]	; d6e8 <_ZN16CInterruptSystem3GetEv+0x30>
    d6e0:	e5930000 	ldr	r0, [r3]
    d6e4:	e8bd8008 	pop	{r3, pc}
    d6e8:	00010110 	andeq	r0, r1, r0, lsl r1
    d6ec:	0000ebf8 	strdeq	lr, [r0], -r8
    d6f0:	0000fde0 	andeq	pc, r0, r0, ror #27

0000d6f4 <_ZN16CInterruptSystem14CallIRQHandlerEj>:
    d6f4:	e92d4038 	push	{r3, r4, r5, lr}
    d6f8:	e1a05000 	mov	r5, r0
    d6fc:	e1a04001 	mov	r4, r1
    d700:	e3510047 	cmp	r1, #71	; 0x47
    d704:	9a000003 	bls	d718 <_ZN16CInterruptSystem14CallIRQHandlerEj+0x24>
    d708:	e59f0038 	ldr	r0, [pc, #56]	; d748 <_ZN16CInterruptSystem14CallIRQHandlerEj+0x54>
    d70c:	e59f1038 	ldr	r1, [pc, #56]	; d74c <_ZN16CInterruptSystem14CallIRQHandlerEj+0x58>
    d710:	e3a02095 	mov	r2, #149	; 0x95
    d714:	ebfff921 	bl	bba0 <assertion_failed>
    d718:	e0852104 	add	r2, r5, r4, lsl #2
    d71c:	e7953104 	ldr	r3, [r5, r4, lsl #2]
    d720:	e3530000 	cmp	r3, #0
    d724:	0a000003 	beq	d738 <_ZN16CInterruptSystem14CallIRQHandlerEj+0x44>
    d728:	e5920120 	ldr	r0, [r2, #288]	; 0x120
    d72c:	e12fff33 	blx	r3
    d730:	e3a00001 	mov	r0, #1
    d734:	e8bd8038 	pop	{r3, r4, r5, pc}
    d738:	e1a00004 	mov	r0, r4
    d73c:	ebffffa5 	bl	d5d8 <_ZN16CInterruptSystem10DisableIRQEj>
    d740:	e3a00000 	mov	r0, #0
    d744:	e8bd8038 	pop	{r3, r4, r5, pc}
    d748:	0000fdcc 	andeq	pc, r0, ip, asr #27
    d74c:	0000fde0 	andeq	pc, r0, r0, ror #27

0000d750 <_ZN16CInterruptSystem16InterruptHandlerEv>:
    d750:	e92d4ff8 	push	{r3, r4, r5, r6, r7, r8, r9, sl, fp, lr}
    d754:	e59f30b0 	ldr	r3, [pc, #176]	; d80c <_ZN16CInterruptSystem16InterruptHandlerEv+0xbc>
    d758:	e5933000 	ldr	r3, [r3]
    d75c:	e3530000 	cmp	r3, #0
    d760:	1a000021 	bne	d7ec <_ZN16CInterruptSystem16InterruptHandlerEv+0x9c>
    d764:	e59f00a4 	ldr	r0, [pc, #164]	; d810 <_ZN16CInterruptSystem16InterruptHandlerEv+0xc0>
    d768:	e59f10a4 	ldr	r1, [pc, #164]	; d814 <_ZN16CInterruptSystem16InterruptHandlerEv+0xc4>
    d76c:	e3a020a8 	mov	r2, #168	; 0xa8
    d770:	ebfff90a 	bl	bba0 <assertion_failed>
    d774:	ea00001c 	b	d7ec <_ZN16CInterruptSystem16InterruptHandlerEv+0x9c>
    d778:	e354001f 	cmp	r4, #31
    d77c:	91a0600a 	movls	r6, sl
    d780:	9a000003 	bls	d794 <_ZN16CInterruptSystem16InterruptHandlerEv+0x44>
    d784:	e354003f 	cmp	r4, #63	; 0x3f
    d788:	81a06009 	movhi	r6, r9
    d78c:	91a06008 	movls	r6, r8
    d790:	eaffffff 	b	d794 <_ZN16CInterruptSystem16InterruptHandlerEv+0x44>
    d794:	e204501f 	and	r5, r4, #31
    d798:	e1a05517 	lsl	r5, r7, r5
    d79c:	e1a00006 	mov	r0, r6
    d7a0:	ebffef38 	bl	9488 <read32>
    d7a4:	e1150000 	tst	r5, r0
    d7a8:	0a00000b 	beq	d7dc <_ZN16CInterruptSystem16InterruptHandlerEv+0x8c>
    d7ac:	e59b0000 	ldr	r0, [fp]
    d7b0:	e1a01004 	mov	r1, r4
    d7b4:	ebffffce 	bl	d6f4 <_ZN16CInterruptSystem14CallIRQHandlerEj>
    d7b8:	e3500000 	cmp	r0, #0
    d7bc:	0a000003 	beq	d7d0 <_ZN16CInterruptSystem16InterruptHandlerEv+0x80>
    d7c0:	e1a00006 	mov	r0, r6
    d7c4:	e1a01005 	mov	r1, r5
    d7c8:	ebffef30 	bl	9490 <write32>
    d7cc:	e8bd8ff8 	pop	{r3, r4, r5, r6, r7, r8, r9, sl, fp, pc}
    d7d0:	e1a00006 	mov	r0, r6
    d7d4:	e1a01005 	mov	r1, r5
    d7d8:	ebffef2c 	bl	9490 <write32>
    d7dc:	e2844001 	add	r4, r4, #1
    d7e0:	e3540048 	cmp	r4, #72	; 0x48
    d7e4:	1affffe3 	bne	d778 <_ZN16CInterruptSystem16InterruptHandlerEv+0x28>
    d7e8:	e8bd8ff8 	pop	{r3, r4, r5, r6, r7, r8, r9, sl, fp, pc}
    d7ec:	e3a04000 	mov	r4, #0
    d7f0:	e59f6020 	ldr	r6, [pc, #32]	; d818 <_ZN16CInterruptSystem16InterruptHandlerEv+0xc8>
    d7f4:	e3a07001 	mov	r7, #1
    d7f8:	e59fb00c 	ldr	fp, [pc, #12]	; d80c <_ZN16CInterruptSystem16InterruptHandlerEv+0xbc>
    d7fc:	e1a0a006 	mov	sl, r6
    d800:	e59f9014 	ldr	r9, [pc, #20]	; d81c <_ZN16CInterruptSystem16InterruptHandlerEv+0xcc>
    d804:	e59f8014 	ldr	r8, [pc, #20]	; d820 <_ZN16CInterruptSystem16InterruptHandlerEv+0xd0>
    d808:	eaffffe1 	b	d794 <_ZN16CInterruptSystem16InterruptHandlerEv+0x44>
    d80c:	00010110 	andeq	r0, r1, r0, lsl r1
    d810:	0000ebf8 	strdeq	lr, [r0], -r8
    d814:	0000fde0 	andeq	pc, r0, r0, ror #27
    d818:	2000b204 	andcs	fp, r0, r4, lsl #4
    d81c:	2000b200 	andcs	fp, r0, r0, lsl #4
    d820:	2000b208 	andcs	fp, r0, r8, lsl #4

0000d824 <InterruptHandler>:
    d824:	e92d4008 	push	{r3, lr}
    d828:	e3a03000 	mov	r3, #0
    d82c:	ee073fba 	mcr	15, 0, r3, cr7, cr10, {5}
    d830:	ebffffc6 	bl	d750 <_ZN16CInterruptSystem16InterruptHandlerEv>
    d834:	e3a03000 	mov	r3, #0
    d838:	ee073fba 	mcr	15, 0, r3, cr7, cr10, {5}
    d83c:	e8bd8008 	pop	{r3, pc}

0000d840 <_ZN12CGPIOManagerC1EP16CInterruptSystem>:
    d840:	e5801000 	str	r1, [r0]
    d844:	e3a03000 	mov	r3, #0
    d848:	e1a02000 	mov	r2, r0
    d84c:	e5a23004 	str	r3, [r2, #4]!
    d850:	e1a01003 	mov	r1, r3
    d854:	e5a21004 	str	r1, [r2, #4]!
    d858:	e2833001 	add	r3, r3, #1
    d85c:	e3530036 	cmp	r3, #54	; 0x36
    d860:	1afffffb 	bne	d854 <_ZN12CGPIOManagerC1EP16CInterruptSystem+0x14>
    d864:	e12fff1e 	bx	lr

0000d868 <_ZN12CGPIOManagerD1Ev>:
    d868:	e92d43f8 	push	{r3, r4, r5, r6, r7, r8, r9, lr}
    d86c:	e1a09000 	mov	r9, r0
    d870:	e2805004 	add	r5, r0, #4
    d874:	e3a04000 	mov	r4, #0
    d878:	e59f8070 	ldr	r8, [pc, #112]	; d8f0 <_ZN12CGPIOManagerD1Ev+0x88>
    d87c:	e59f7070 	ldr	r7, [pc, #112]	; d8f4 <_ZN12CGPIOManagerD1Ev+0x8c>
    d880:	e3a0602c 	mov	r6, #44	; 0x2c
    d884:	e5b53004 	ldr	r3, [r5, #4]!
    d888:	e3530000 	cmp	r3, #0
    d88c:	0a000003 	beq	d8a0 <_ZN12CGPIOManagerD1Ev+0x38>
    d890:	e1a00008 	mov	r0, r8
    d894:	e1a01007 	mov	r1, r7
    d898:	e1a02006 	mov	r2, r6
    d89c:	ebfff8bf 	bl	bba0 <assertion_failed>
    d8a0:	e2844001 	add	r4, r4, #1
    d8a4:	e3540036 	cmp	r4, #54	; 0x36
    d8a8:	1afffff5 	bne	d884 <_ZN12CGPIOManagerD1Ev+0x1c>
    d8ac:	e5993004 	ldr	r3, [r9, #4]
    d8b0:	e3530000 	cmp	r3, #0
    d8b4:	0a000009 	beq	d8e0 <_ZN12CGPIOManagerD1Ev+0x78>
    d8b8:	e5993000 	ldr	r3, [r9]
    d8bc:	e3530000 	cmp	r3, #0
    d8c0:	1a000003 	bne	d8d4 <_ZN12CGPIOManagerD1Ev+0x6c>
    d8c4:	e59f002c 	ldr	r0, [pc, #44]	; d8f8 <_ZN12CGPIOManagerD1Ev+0x90>
    d8c8:	e59f1024 	ldr	r1, [pc, #36]	; d8f4 <_ZN12CGPIOManagerD1Ev+0x8c>
    d8cc:	e3a02032 	mov	r2, #50	; 0x32
    d8d0:	ebfff8b2 	bl	bba0 <assertion_failed>
    d8d4:	e5990000 	ldr	r0, [r9]
    d8d8:	e3a01034 	mov	r1, #52	; 0x34
    d8dc:	ebffff5b 	bl	d650 <_ZN16CInterruptSystem13DisconnectIRQEj>
    d8e0:	e3a03000 	mov	r3, #0
    d8e4:	e5893000 	str	r3, [r9]
    d8e8:	e1a00009 	mov	r0, r9
    d8ec:	e8bd83f8 	pop	{r3, r4, r5, r6, r7, r8, r9, pc}
    d8f0:	0000fe28 	andeq	pc, r0, r8, lsr #28
    d8f4:	0000fe3c 	andeq	pc, r0, ip, lsr lr	; <UNPREDICTABLE>
    d8f8:	0000fe4c 	andeq	pc, r0, ip, asr #28

0000d8fc <_ZN12CGPIOManager10InitializeEv>:
    d8fc:	e92d4010 	push	{r4, lr}
    d900:	e1a04000 	mov	r4, r0
    d904:	e5903004 	ldr	r3, [r0, #4]
    d908:	e3530000 	cmp	r3, #0
    d90c:	0a000003 	beq	d920 <_ZN12CGPIOManager10InitializeEv+0x24>
    d910:	e59f0044 	ldr	r0, [pc, #68]	; d95c <_ZN12CGPIOManager10InitializeEv+0x60>
    d914:	e59f1044 	ldr	r1, [pc, #68]	; d960 <_ZN12CGPIOManager10InitializeEv+0x64>
    d918:	e3a0203b 	mov	r2, #59	; 0x3b
    d91c:	ebfff89f 	bl	bba0 <assertion_failed>
    d920:	e5943000 	ldr	r3, [r4]
    d924:	e3530000 	cmp	r3, #0
    d928:	1a000003 	bne	d93c <_ZN12CGPIOManager10InitializeEv+0x40>
    d92c:	e59f0030 	ldr	r0, [pc, #48]	; d964 <_ZN12CGPIOManager10InitializeEv+0x68>
    d930:	e59f1028 	ldr	r1, [pc, #40]	; d960 <_ZN12CGPIOManager10InitializeEv+0x64>
    d934:	e3a0203c 	mov	r2, #60	; 0x3c
    d938:	ebfff898 	bl	bba0 <assertion_failed>
    d93c:	e5940000 	ldr	r0, [r4]
    d940:	e3a01034 	mov	r1, #52	; 0x34
    d944:	e59f201c 	ldr	r2, [pc, #28]	; d968 <_ZN12CGPIOManager10InitializeEv+0x6c>
    d948:	e1a03004 	mov	r3, r4
    d94c:	ebffff06 	bl	d56c <_ZN16CInterruptSystem10ConnectIRQEjPFvPvES0_>
    d950:	e3a00001 	mov	r0, #1
    d954:	e5840004 	str	r0, [r4, #4]
    d958:	e8bd8010 	pop	{r4, pc}
    d95c:	0000fe60 	andeq	pc, r0, r0, ror #28
    d960:	0000fe3c 	andeq	pc, r0, ip, lsr lr	; <UNPREDICTABLE>
    d964:	0000fe4c 	andeq	pc, r0, ip, asr #28
    d968:	0000db84 	andeq	sp, r0, r4, lsl #23

0000d96c <_ZN12CGPIOManager16ConnectInterruptEP8CGPIOPin>:
    d96c:	e92d4070 	push	{r4, r5, r6, lr}
    d970:	e1a05000 	mov	r5, r0
    d974:	e1a04001 	mov	r4, r1
    d978:	e5903004 	ldr	r3, [r0, #4]
    d97c:	e3530000 	cmp	r3, #0
    d980:	1a000003 	bne	d994 <_ZN12CGPIOManager16ConnectInterruptEP8CGPIOPin+0x28>
    d984:	e59f0064 	ldr	r0, [pc, #100]	; d9f0 <_ZN12CGPIOManager16ConnectInterruptEP8CGPIOPin+0x84>
    d988:	e59f1064 	ldr	r1, [pc, #100]	; d9f4 <_ZN12CGPIOManager16ConnectInterruptEP8CGPIOPin+0x88>
    d98c:	e3a02045 	mov	r2, #69	; 0x45
    d990:	ebfff882 	bl	bba0 <assertion_failed>
    d994:	e3540000 	cmp	r4, #0
    d998:	1a000003 	bne	d9ac <_ZN12CGPIOManager16ConnectInterruptEP8CGPIOPin+0x40>
    d99c:	e59f0054 	ldr	r0, [pc, #84]	; d9f8 <_ZN12CGPIOManager16ConnectInterruptEP8CGPIOPin+0x8c>
    d9a0:	e59f104c 	ldr	r1, [pc, #76]	; d9f4 <_ZN12CGPIOManager16ConnectInterruptEP8CGPIOPin+0x88>
    d9a4:	e3a02047 	mov	r2, #71	; 0x47
    d9a8:	ebfff87c 	bl	bba0 <assertion_failed>
    d9ac:	e5946004 	ldr	r6, [r4, #4]
    d9b0:	e3560035 	cmp	r6, #53	; 0x35
    d9b4:	9a000003 	bls	d9c8 <_ZN12CGPIOManager16ConnectInterruptEP8CGPIOPin+0x5c>
    d9b8:	e59f003c 	ldr	r0, [pc, #60]	; d9fc <_ZN12CGPIOManager16ConnectInterruptEP8CGPIOPin+0x90>
    d9bc:	e59f1030 	ldr	r1, [pc, #48]	; d9f4 <_ZN12CGPIOManager16ConnectInterruptEP8CGPIOPin+0x88>
    d9c0:	e3a02049 	mov	r2, #73	; 0x49
    d9c4:	ebfff875 	bl	bba0 <assertion_failed>
    d9c8:	e0855106 	add	r5, r5, r6, lsl #2
    d9cc:	e5953008 	ldr	r3, [r5, #8]
    d9d0:	e3530000 	cmp	r3, #0
    d9d4:	0a000003 	beq	d9e8 <_ZN12CGPIOManager16ConnectInterruptEP8CGPIOPin+0x7c>
    d9d8:	e59f0020 	ldr	r0, [pc, #32]	; da00 <_ZN12CGPIOManager16ConnectInterruptEP8CGPIOPin+0x94>
    d9dc:	e59f1010 	ldr	r1, [pc, #16]	; d9f4 <_ZN12CGPIOManager16ConnectInterruptEP8CGPIOPin+0x88>
    d9e0:	e3a0204b 	mov	r2, #75	; 0x4b
    d9e4:	ebfff86d 	bl	bba0 <assertion_failed>
    d9e8:	e5854008 	str	r4, [r5, #8]
    d9ec:	e8bd8070 	pop	{r4, r5, r6, pc}
    d9f0:	0000fe74 	andeq	pc, r0, r4, ror lr	; <UNPREDICTABLE>
    d9f4:	0000fe3c 	andeq	pc, r0, ip, lsr lr	; <UNPREDICTABLE>
    d9f8:	0000fe84 	andeq	pc, r0, r4, lsl #29
    d9fc:	0000ea0c 	andeq	lr, r0, ip, lsl #20
    da00:	0000fe28 	andeq	pc, r0, r8, lsr #28

0000da04 <_ZN12CGPIOManager19DisconnectInterruptEP8CGPIOPin>:
    da04:	e92d4038 	push	{r3, r4, r5, lr}
    da08:	e1a04000 	mov	r4, r0
    da0c:	e1a05001 	mov	r5, r1
    da10:	e5903004 	ldr	r3, [r0, #4]
    da14:	e3530000 	cmp	r3, #0
    da18:	1a000003 	bne	da2c <_ZN12CGPIOManager19DisconnectInterruptEP8CGPIOPin+0x28>
    da1c:	e59f0068 	ldr	r0, [pc, #104]	; da8c <_ZN12CGPIOManager19DisconnectInterruptEP8CGPIOPin+0x88>
    da20:	e59f1068 	ldr	r1, [pc, #104]	; da90 <_ZN12CGPIOManager19DisconnectInterruptEP8CGPIOPin+0x8c>
    da24:	e3a02052 	mov	r2, #82	; 0x52
    da28:	ebfff85c 	bl	bba0 <assertion_failed>
    da2c:	e3550000 	cmp	r5, #0
    da30:	1a000003 	bne	da44 <_ZN12CGPIOManager19DisconnectInterruptEP8CGPIOPin+0x40>
    da34:	e59f0058 	ldr	r0, [pc, #88]	; da94 <_ZN12CGPIOManager19DisconnectInterruptEP8CGPIOPin+0x90>
    da38:	e59f1050 	ldr	r1, [pc, #80]	; da90 <_ZN12CGPIOManager19DisconnectInterruptEP8CGPIOPin+0x8c>
    da3c:	e3a02054 	mov	r2, #84	; 0x54
    da40:	ebfff856 	bl	bba0 <assertion_failed>
    da44:	e5955004 	ldr	r5, [r5, #4]
    da48:	e3550035 	cmp	r5, #53	; 0x35
    da4c:	9a000003 	bls	da60 <_ZN12CGPIOManager19DisconnectInterruptEP8CGPIOPin+0x5c>
    da50:	e59f0040 	ldr	r0, [pc, #64]	; da98 <_ZN12CGPIOManager19DisconnectInterruptEP8CGPIOPin+0x94>
    da54:	e59f1034 	ldr	r1, [pc, #52]	; da90 <_ZN12CGPIOManager19DisconnectInterruptEP8CGPIOPin+0x8c>
    da58:	e3a02056 	mov	r2, #86	; 0x56
    da5c:	ebfff84f 	bl	bba0 <assertion_failed>
    da60:	e0844105 	add	r4, r4, r5, lsl #2
    da64:	e5943008 	ldr	r3, [r4, #8]
    da68:	e3530000 	cmp	r3, #0
    da6c:	1a000003 	bne	da80 <_ZN12CGPIOManager19DisconnectInterruptEP8CGPIOPin+0x7c>
    da70:	e59f0024 	ldr	r0, [pc, #36]	; da9c <_ZN12CGPIOManager19DisconnectInterruptEP8CGPIOPin+0x98>
    da74:	e59f1014 	ldr	r1, [pc, #20]	; da90 <_ZN12CGPIOManager19DisconnectInterruptEP8CGPIOPin+0x8c>
    da78:	e3a02058 	mov	r2, #88	; 0x58
    da7c:	ebfff847 	bl	bba0 <assertion_failed>
    da80:	e3a03000 	mov	r3, #0
    da84:	e5843008 	str	r3, [r4, #8]
    da88:	e8bd8038 	pop	{r3, r4, r5, pc}
    da8c:	0000fe74 	andeq	pc, r0, r4, ror lr	; <UNPREDICTABLE>
    da90:	0000fe3c 	andeq	pc, r0, ip, lsr lr	; <UNPREDICTABLE>
    da94:	0000fe84 	andeq	pc, r0, r4, lsl #29
    da98:	0000ea0c 	andeq	lr, r0, ip, lsl #20
    da9c:	0000fe90 	muleq	r0, r0, lr

0000daa0 <_ZN12CGPIOManager16InterruptHandlerEv>:
    daa0:	e92d4070 	push	{r4, r5, r6, lr}
    daa4:	e1a06000 	mov	r6, r0
    daa8:	e5903004 	ldr	r3, [r0, #4]
    daac:	e3530000 	cmp	r3, #0
    dab0:	1a000003 	bne	dac4 <_ZN12CGPIOManager16InterruptHandlerEv+0x24>
    dab4:	e59f00b4 	ldr	r0, [pc, #180]	; db70 <_ZN12CGPIOManager16InterruptHandlerEv+0xd0>
    dab8:	e59f10b4 	ldr	r1, [pc, #180]	; db74 <_ZN12CGPIOManager16InterruptHandlerEv+0xd4>
    dabc:	e3a0205e 	mov	r2, #94	; 0x5e
    dac0:	ebfff836 	bl	bba0 <assertion_failed>
    dac4:	e3a03000 	mov	r3, #0
    dac8:	ee073fba 	mcr	15, 0, r3, cr7, cr10, {5}
    dacc:	e59f00a4 	ldr	r0, [pc, #164]	; db78 <_ZN12CGPIOManager16InterruptHandlerEv+0xd8>
    dad0:	ebffee6c 	bl	9488 <read32>
    dad4:	e3100001 	tst	r0, #1
    dad8:	0a000020 	beq	db60 <_ZN12CGPIOManager16InterruptHandlerEv+0xc0>
    dadc:	ea000016 	b	db3c <_ZN12CGPIOManager16InterruptHandlerEv+0x9c>
    dae0:	e3100001 	tst	r0, #1
    dae4:	1a000015 	bne	db40 <_ZN12CGPIOManager16InterruptHandlerEv+0xa0>
    dae8:	e2844001 	add	r4, r4, #1
    daec:	e314001f 	tst	r4, #31
    daf0:	11a000a0 	lsrne	r0, r0, #1
    daf4:	1a000001 	bne	db00 <_ZN12CGPIOManager16InterruptHandlerEv+0x60>
    daf8:	e1a00005 	mov	r0, r5
    dafc:	ebffee61 	bl	9488 <read32>
    db00:	e3540036 	cmp	r4, #54	; 0x36
    db04:	1afffff5 	bne	dae0 <_ZN12CGPIOManager16InterruptHandlerEv+0x40>
    db08:	ea000008 	b	db30 <_ZN12CGPIOManager16InterruptHandlerEv+0x90>
    db0c:	ebffedfd 	bl	9308 <_ZN8CGPIOPin16InterruptHandlerEv>
    db10:	ea000001 	b	db1c <_ZN12CGPIOManager16InterruptHandlerEv+0x7c>
    db14:	e1a00004 	mov	r0, r4
    db18:	ebffee1e 	bl	9398 <_ZN8CGPIOPin20DisableAllInterruptsEj>
    db1c:	e59f0058 	ldr	r0, [pc, #88]	; db7c <_ZN12CGPIOManager16InterruptHandlerEv+0xdc>
    db20:	e08002a4 	add	r0, r0, r4, lsr #5
    db24:	e1a00100 	lsl	r0, r0, #2
    db28:	e1a01005 	mov	r1, r5
    db2c:	ebffee57 	bl	9490 <write32>
    db30:	e3a03000 	mov	r3, #0
    db34:	ee073fba 	mcr	15, 0, r3, cr7, cr10, {5}
    db38:	e8bd8070 	pop	{r4, r5, r6, pc}
    db3c:	e3a04000 	mov	r4, #0
    db40:	e204301f 	and	r3, r4, #31
    db44:	e3a01001 	mov	r1, #1
    db48:	e1a05311 	lsl	r5, r1, r3
    db4c:	e2843002 	add	r3, r4, #2
    db50:	e7960103 	ldr	r0, [r6, r3, lsl #2]
    db54:	e3500000 	cmp	r0, #0
    db58:	1affffeb 	bne	db0c <_ZN12CGPIOManager16InterruptHandlerEv+0x6c>
    db5c:	eaffffec 	b	db14 <_ZN12CGPIOManager16InterruptHandlerEv+0x74>
    db60:	e1a000a0 	lsr	r0, r0, #1
    db64:	e3a04001 	mov	r4, #1
    db68:	e59f5010 	ldr	r5, [pc, #16]	; db80 <_ZN12CGPIOManager16InterruptHandlerEv+0xe0>
    db6c:	eaffffdb 	b	dae0 <_ZN12CGPIOManager16InterruptHandlerEv+0x40>
    db70:	0000fe74 	andeq	pc, r0, r4, ror lr	; <UNPREDICTABLE>
    db74:	0000fe3c 	andeq	pc, r0, ip, lsr lr	; <UNPREDICTABLE>
    db78:	20200040 	eorcs	r0, r0, r0, asr #32
    db7c:	08080010 	stmdaeq	r8, {r4}
    db80:	20200044 	eorcs	r0, r0, r4, asr #32

0000db84 <_ZN12CGPIOManager13InterruptStubEPv>:
    db84:	e92d4010 	push	{r4, lr}
    db88:	e2504000 	subs	r4, r0, #0
    db8c:	1a000003 	bne	dba0 <_ZN12CGPIOManager13InterruptStubEPv+0x1c>
    db90:	e59f0014 	ldr	r0, [pc, #20]	; dbac <_ZN12CGPIOManager13InterruptStubEPv+0x28>
    db94:	e59f1014 	ldr	r1, [pc, #20]	; dbb0 <_ZN12CGPIOManager13InterruptStubEPv+0x2c>
    db98:	e3a0208a 	mov	r2, #138	; 0x8a
    db9c:	ebfff7ff 	bl	bba0 <assertion_failed>
    dba0:	e1a00004 	mov	r0, r4
    dba4:	ebffffbd 	bl	daa0 <_ZN12CGPIOManager16InterruptHandlerEv>
    dba8:	e8bd8010 	pop	{r4, pc}
    dbac:	0000fea4 	andeq	pc, r0, r4, lsr #29
    dbb0:	0000fe3c 	andeq	pc, r0, ip, lsr lr	; <UNPREDICTABLE>

0000dbb4 <_ZN10CGPIOClockC1E10TGPIOClock16TGPIOClockSource>:
    dbb4:	e92d4010 	push	{r4, lr}
    dbb8:	e1a04000 	mov	r4, r0
    dbbc:	e5c01000 	strb	r1, [r0]
    dbc0:	e5c02001 	strb	r2, [r0, #1]
    dbc4:	e3510006 	cmp	r1, #6
    dbc8:	9a000003 	bls	dbdc <_ZN10CGPIOClockC1E10TGPIOClock16TGPIOClockSource+0x28>
    dbcc:	e59f002c 	ldr	r0, [pc, #44]	; dc00 <_ZN10CGPIOClockC1E10TGPIOClock16TGPIOClockSource+0x4c>
    dbd0:	e59f102c 	ldr	r1, [pc, #44]	; dc04 <_ZN10CGPIOClockC1E10TGPIOClock16TGPIOClockSource+0x50>
    dbd4:	e3a0201d 	mov	r2, #29
    dbd8:	ebfff7f0 	bl	bba0 <assertion_failed>
    dbdc:	e5d43001 	ldrb	r3, [r4, #1]
    dbe0:	e3530007 	cmp	r3, #7
    dbe4:	9a000003 	bls	dbf8 <_ZN10CGPIOClockC1E10TGPIOClock16TGPIOClockSource+0x44>
    dbe8:	e59f0018 	ldr	r0, [pc, #24]	; dc08 <_ZN10CGPIOClockC1E10TGPIOClock16TGPIOClockSource+0x54>
    dbec:	e59f1010 	ldr	r1, [pc, #16]	; dc04 <_ZN10CGPIOClockC1E10TGPIOClock16TGPIOClockSource+0x50>
    dbf0:	e3a0201e 	mov	r2, #30
    dbf4:	ebfff7e9 	bl	bba0 <assertion_failed>
    dbf8:	e1a00004 	mov	r0, r4
    dbfc:	e8bd8010 	pop	{r4, pc}
    dc00:	0000fec0 	andeq	pc, r0, r0, asr #29
    dc04:	0000fed8 	ldrdeq	pc, [r0], -r8
    dc08:	0000fee8 	andeq	pc, r0, r8, ror #29

0000dc0c <_ZN10CGPIOClock4StopEv>:
    dc0c:	e92d4010 	push	{r4, lr}
    dc10:	e5d03000 	ldrb	r3, [r0]
    dc14:	e59f4034 	ldr	r4, [pc, #52]	; dc50 <_ZN10CGPIOClock4StopEv+0x44>
    dc18:	e0834004 	add	r4, r3, r4
    dc1c:	e1a04184 	lsl	r4, r4, #3
    dc20:	e3a03000 	mov	r3, #0
    dc24:	ee073fba 	mcr	15, 0, r3, cr7, cr10, {5}
    dc28:	e1a00004 	mov	r0, r4
    dc2c:	e59f1020 	ldr	r1, [pc, #32]	; dc54 <_ZN10CGPIOClock4StopEv+0x48>
    dc30:	ebffee16 	bl	9490 <write32>
    dc34:	e1a00004 	mov	r0, r4
    dc38:	ebffee12 	bl	9488 <read32>
    dc3c:	e3100080 	tst	r0, #128	; 0x80
    dc40:	1afffffb 	bne	dc34 <_ZN10CGPIOClock4StopEv+0x28>
    dc44:	e3a03000 	mov	r3, #0
    dc48:	ee073fba 	mcr	15, 0, r3, cr7, cr10, {5}
    dc4c:	e8bd8010 	pop	{r4, pc}
    dc50:	0402020e 	streq	r0, [r2], #-526	; 0x20e
    dc54:	5a000020 	bpl	dcdc <_ZN10CGPIOClock5StartEjjj+0x70>

0000dc58 <_ZN10CGPIOClockD1Ev>:
    dc58:	e92d4010 	push	{r4, lr}
    dc5c:	e1a04000 	mov	r4, r0
    dc60:	ebffffe9 	bl	dc0c <_ZN10CGPIOClock4StopEv>
    dc64:	e1a00004 	mov	r0, r4
    dc68:	e8bd8010 	pop	{r4, pc}

0000dc6c <_ZN10CGPIOClock5StartEjjj>:
    dc6c:	e92d41f0 	push	{r4, r5, r6, r7, r8, lr}
    dc70:	e1a06000 	mov	r6, r0
    dc74:	e1a07001 	mov	r7, r1
    dc78:	e1a08002 	mov	r8, r2
    dc7c:	e1a05003 	mov	r5, r3
    dc80:	e3530003 	cmp	r3, #3
    dc84:	9a000003 	bls	dc98 <_ZN10CGPIOClock5StartEjjj+0x2c>
    dc88:	e59f00b8 	ldr	r0, [pc, #184]	; dd48 <_ZN10CGPIOClock5StartEjjj+0xdc>
    dc8c:	e59f10b8 	ldr	r1, [pc, #184]	; dd4c <_ZN10CGPIOClock5StartEjjj+0xe0>
    dc90:	e3a0202b 	mov	r2, #43	; 0x2b
    dc94:	ebfff7c1 	bl	bba0 <assertion_failed>
    dc98:	e59f30b0 	ldr	r3, [pc, #176]	; dd50 <_ZN10CGPIOClock5StartEjjj+0xe4>
    dc9c:	e7933105 	ldr	r3, [r3, r5, lsl #2]
    dca0:	e1530007 	cmp	r3, r7
    dca4:	8a000001 	bhi	dcb0 <_ZN10CGPIOClock5StartEjjj+0x44>
    dca8:	e3570a01 	cmp	r7, #4096	; 0x1000
    dcac:	3a000003 	bcc	dcc0 <_ZN10CGPIOClock5StartEjjj+0x54>
    dcb0:	e59f009c 	ldr	r0, [pc, #156]	; dd54 <_ZN10CGPIOClock5StartEjjj+0xe8>
    dcb4:	e59f1090 	ldr	r1, [pc, #144]	; dd4c <_ZN10CGPIOClock5StartEjjj+0xe0>
    dcb8:	e3a0202c 	mov	r2, #44	; 0x2c
    dcbc:	ebfff7b7 	bl	bba0 <assertion_failed>
    dcc0:	e3580a01 	cmp	r8, #4096	; 0x1000
    dcc4:	3a000003 	bcc	dcd8 <_ZN10CGPIOClock5StartEjjj+0x6c>
    dcc8:	e59f0088 	ldr	r0, [pc, #136]	; dd58 <_ZN10CGPIOClock5StartEjjj+0xec>
    dccc:	e59f1078 	ldr	r1, [pc, #120]	; dd4c <_ZN10CGPIOClock5StartEjjj+0xe0>
    dcd0:	e3a0202d 	mov	r2, #45	; 0x2d
    dcd4:	ebfff7b1 	bl	bba0 <assertion_failed>
    dcd8:	e5d63000 	ldrb	r3, [r6]
    dcdc:	e59f4078 	ldr	r4, [pc, #120]	; dd5c <_ZN10CGPIOClock5StartEjjj+0xf0>
    dce0:	e0834004 	add	r4, r3, r4
    dce4:	e1a04184 	lsl	r4, r4, #3
    dce8:	e1a00006 	mov	r0, r6
    dcec:	ebffffc6 	bl	dc0c <_ZN10CGPIOClock4StopEv>
    dcf0:	e388145a 	orr	r1, r8, #1509949440	; 0x5a000000
    dcf4:	e2840004 	add	r0, r4, #4
    dcf8:	e1811607 	orr	r1, r1, r7, lsl #12
    dcfc:	ebffede3 	bl	9490 <write32>
    dd00:	e3a0000a 	mov	r0, #10
    dd04:	ebfff0a8 	bl	9fac <_ZN6CTimer13SimpleusDelayEj>
    dd08:	e5d61001 	ldrb	r1, [r6, #1]
    dd0c:	e381145a 	orr	r1, r1, #1509949440	; 0x5a000000
    dd10:	e1a00004 	mov	r0, r4
    dd14:	e1811485 	orr	r1, r1, r5, lsl #9
    dd18:	ebffeddc 	bl	9490 <write32>
    dd1c:	e3a0000a 	mov	r0, #10
    dd20:	ebfff0a1 	bl	9fac <_ZN6CTimer13SimpleusDelayEj>
    dd24:	e1a00004 	mov	r0, r4
    dd28:	ebffedd6 	bl	9488 <read32>
    dd2c:	e380145a 	orr	r1, r0, #1509949440	; 0x5a000000
    dd30:	e1a00004 	mov	r0, r4
    dd34:	e3811010 	orr	r1, r1, #16
    dd38:	ebffedd4 	bl	9490 <write32>
    dd3c:	e3a03000 	mov	r3, #0
    dd40:	ee073fba 	mcr	15, 0, r3, cr7, cr10, {5}
    dd44:	e8bd81f0 	pop	{r4, r5, r6, r7, r8, pc}
    dd48:	0000ff08 	andeq	pc, r0, r8, lsl #30
    dd4c:	0000fed8 	ldrdeq	pc, [r0], -r8
    dd50:	0000feb0 			; <UNDEFINED> instruction: 0x0000feb0
    dd54:	0000ff14 	andeq	pc, r0, r4, lsl pc	; <UNPREDICTABLE>
    dd58:	0000ff40 	andeq	pc, r0, r0, asr #30
    dd5c:	0402020e 	streq	r0, [r2], #-526	; 0x20e

0000dd60 <mem_init>:
    dd60:	e0801001 	add	r1, r0, r1
    dd64:	e59f3030 	ldr	r3, [pc, #48]	; dd9c <mem_init+0x3c>
    dd68:	e1500003 	cmp	r0, r3
    dd6c:	93a00501 	movls	r0, #4194304	; 0x400000
    dd70:	e59f3028 	ldr	r3, [pc, #40]	; dda0 <mem_init+0x40>
    dd74:	e5830000 	str	r0, [r3]
    dd78:	e0602001 	rsb	r2, r0, r1
    dd7c:	e0800122 	add	r0, r0, r2, lsr #2
    dd80:	e5830004 	str	r0, [r3, #4]
    dd84:	e2800a01 	add	r0, r0, #4096	; 0x1000
    dd88:	e3c00eff 	bic	r0, r0, #4080	; 0xff0
    dd8c:	e3c0000f 	bic	r0, r0, #15
    dd90:	e5830008 	str	r0, [r3, #8]
    dd94:	e583100c 	str	r1, [r3, #12]
    dd98:	e12fff1e 	bx	lr
    dd9c:	003fffff 	ldrshteq	pc, [pc], -pc	; <UNPREDICTABLE>
    dda0:	00010114 	andeq	r0, r1, r4, lsl r1

0000dda4 <mem_get_size>:
    dda4:	e59f301c 	ldr	r3, [pc, #28]	; ddc8 <mem_get_size+0x24>
    dda8:	e593000c 	ldr	r0, [r3, #12]
    ddac:	e5932008 	ldr	r2, [r3, #8]
    ddb0:	e0620000 	rsb	r0, r2, r0
    ddb4:	e5932004 	ldr	r2, [r3, #4]
    ddb8:	e5933000 	ldr	r3, [r3]
    ddbc:	e0633002 	rsb	r3, r3, r2
    ddc0:	e0800003 	add	r0, r0, r3
    ddc4:	e12fff1e 	bx	lr
    ddc8:	00010114 	andeq	r0, r1, r4, lsl r1

0000ddcc <malloc>:
    ddcc:	e92d4070 	push	{r4, r5, r6, lr}
    ddd0:	e1a04000 	mov	r4, r0
    ddd4:	e59f31b8 	ldr	r3, [pc, #440]	; df94 <malloc+0x1c8>
    ddd8:	e5933000 	ldr	r3, [r3]
    dddc:	e3530000 	cmp	r3, #0
    dde0:	1a000003 	bne	ddf4 <malloc+0x28>
    dde4:	e59f01ac 	ldr	r0, [pc, #428]	; df98 <malloc+0x1cc>
    dde8:	e59f11ac 	ldr	r1, [pc, #428]	; df9c <malloc+0x1d0>
    ddec:	e3a0206f 	mov	r2, #111	; 0x6f
    ddf0:	ebfff76a 	bl	bba0 <assertion_failed>
    ddf4:	e59f3198 	ldr	r3, [pc, #408]	; df94 <malloc+0x1c8>
    ddf8:	e5933010 	ldr	r3, [r3, #16]
    ddfc:	e3530000 	cmp	r3, #0
    de00:	0a000000 	beq	de08 <malloc+0x3c>
    de04:	ebffee9c 	bl	987c <EnterCritical>
    de08:	e59f3190 	ldr	r3, [pc, #400]	; dfa0 <malloc+0x1d4>
    de0c:	e5932000 	ldr	r2, [r3]
    de10:	e3520000 	cmp	r2, #0
    de14:	0a000022 	beq	dea4 <malloc+0xd8>
    de18:	e1540002 	cmp	r4, r2
    de1c:	9a000056 	bls	df7c <malloc+0x1b0>
    de20:	e2833008 	add	r3, r3, #8
    de24:	ea000002 	b	de34 <malloc+0x68>
    de28:	e2833008 	add	r3, r3, #8
    de2c:	e1520004 	cmp	r2, r4
    de30:	2a000052 	bcs	df80 <malloc+0x1b4>
    de34:	e1a06003 	mov	r6, r3
    de38:	e5932000 	ldr	r2, [r3]
    de3c:	e3520000 	cmp	r2, #0
    de40:	1afffff8 	bne	de28 <malloc+0x5c>
    de44:	ea000016 	b	dea4 <malloc+0xd8>
    de48:	e5d53000 	ldrb	r3, [r5]
    de4c:	e5d52001 	ldrb	r2, [r5, #1]
    de50:	e1833402 	orr	r3, r3, r2, lsl #8
    de54:	e5d52002 	ldrb	r2, [r5, #2]
    de58:	e1833802 	orr	r3, r3, r2, lsl #16
    de5c:	e5d52003 	ldrb	r2, [r5, #3]
    de60:	e1832c02 	orr	r2, r3, r2, lsl #24
    de64:	e59f3138 	ldr	r3, [pc, #312]	; dfa4 <malloc+0x1d8>
    de68:	e1520003 	cmp	r2, r3
    de6c:	0a000003 	beq	de80 <malloc+0xb4>
    de70:	e59f0130 	ldr	r0, [pc, #304]	; dfa8 <malloc+0x1dc>
    de74:	e59f1120 	ldr	r1, [pc, #288]	; df9c <malloc+0x1d0>
    de78:	e3a02089 	mov	r2, #137	; 0x89
    de7c:	ebfff747 	bl	bba0 <assertion_failed>
    de80:	e5d53008 	ldrb	r3, [r5, #8]
    de84:	e5d52009 	ldrb	r2, [r5, #9]
    de88:	e1833402 	orr	r3, r3, r2, lsl #8
    de8c:	e5d5200a 	ldrb	r2, [r5, #10]
    de90:	e1833802 	orr	r3, r3, r2, lsl #16
    de94:	e5d5200b 	ldrb	r2, [r5, #11]
    de98:	e1833c02 	orr	r3, r3, r2, lsl #24
    de9c:	e5863004 	str	r3, [r6, #4]
    dea0:	ea00001e 	b	df20 <malloc+0x154>
    dea4:	e59f30e8 	ldr	r3, [pc, #232]	; df94 <malloc+0x1c8>
    dea8:	e5935000 	ldr	r5, [r3]
    deac:	e284201f 	add	r2, r4, #31
    deb0:	e3c2200f 	bic	r2, r2, #15
    deb4:	e0852002 	add	r2, r5, r2
    deb8:	e5832000 	str	r2, [r3]
    debc:	e5933004 	ldr	r3, [r3, #4]
    dec0:	e1520003 	cmp	r2, r3
    dec4:	9a000006 	bls	dee4 <malloc+0x118>
    dec8:	e59f30c4 	ldr	r3, [pc, #196]	; df94 <malloc+0x1c8>
    decc:	e5933010 	ldr	r3, [r3, #16]
    ded0:	e3530000 	cmp	r3, #0
    ded4:	0a000024 	beq	df6c <malloc+0x1a0>
    ded8:	ebffee77 	bl	98bc <LeaveCritical>
    dedc:	e3a00000 	mov	r0, #0
    dee0:	e8bd8070 	pop	{r4, r5, r6, pc}
    dee4:	e3a03043 	mov	r3, #67	; 0x43
    dee8:	e5c53000 	strb	r3, [r5]
    deec:	e3a0304d 	mov	r3, #77	; 0x4d
    def0:	e5c53001 	strb	r3, [r5, #1]
    def4:	e3a0304c 	mov	r3, #76	; 0x4c
    def8:	e5c53002 	strb	r3, [r5, #2]
    defc:	e3a03042 	mov	r3, #66	; 0x42
    df00:	e5c53003 	strb	r3, [r5, #3]
    df04:	e5c54004 	strb	r4, [r5, #4]
    df08:	e1a03424 	lsr	r3, r4, #8
    df0c:	e5c53005 	strb	r3, [r5, #5]
    df10:	e1a03824 	lsr	r3, r4, #16
    df14:	e5c53006 	strb	r3, [r5, #6]
    df18:	e1a04c24 	lsr	r4, r4, #24
    df1c:	e5c54007 	strb	r4, [r5, #7]
    df20:	e59f306c 	ldr	r3, [pc, #108]	; df94 <malloc+0x1c8>
    df24:	e5933010 	ldr	r3, [r3, #16]
    df28:	e3530000 	cmp	r3, #0
    df2c:	0a000000 	beq	df34 <malloc+0x168>
    df30:	ebffee61 	bl	98bc <LeaveCritical>
    df34:	e3a03000 	mov	r3, #0
    df38:	e5c53008 	strb	r3, [r5, #8]
    df3c:	e5c53009 	strb	r3, [r5, #9]
    df40:	e5c5300a 	strb	r3, [r5, #10]
    df44:	e5c5300b 	strb	r3, [r5, #11]
    df48:	e2855010 	add	r5, r5, #16
    df4c:	e315000f 	tst	r5, #15
    df50:	0a000007 	beq	df74 <malloc+0x1a8>
    df54:	e59f0050 	ldr	r0, [pc, #80]	; dfac <malloc+0x1e0>
    df58:	e59f103c 	ldr	r1, [pc, #60]	; df9c <malloc+0x1d0>
    df5c:	e3a020a1 	mov	r2, #161	; 0xa1
    df60:	ebfff70e 	bl	bba0 <assertion_failed>
    df64:	e1a00005 	mov	r0, r5
    df68:	e8bd8070 	pop	{r4, r5, r6, pc}
    df6c:	e3a00000 	mov	r0, #0
    df70:	e8bd8070 	pop	{r4, r5, r6, pc}
    df74:	e1a00005 	mov	r0, r5
    df78:	e8bd8070 	pop	{r4, r5, r6, pc}
    df7c:	e59f601c 	ldr	r6, [pc, #28]	; dfa0 <malloc+0x1d4>
    df80:	e5965004 	ldr	r5, [r6, #4]
    df84:	e3550000 	cmp	r5, #0
    df88:	01a04002 	moveq	r4, r2
    df8c:	0affffc4 	beq	dea4 <malloc+0xd8>
    df90:	eaffffac 	b	de48 <malloc+0x7c>
    df94:	00010114 	andeq	r0, r1, r4, lsl r1
    df98:	0000ff50 	andeq	pc, r0, r0, asr pc	; <UNPREDICTABLE>
    df9c:	0000ff64 	andeq	pc, r0, r4, ror #30
    dfa0:	000100b0 	strheq	r0, [r1], -r0	; <UNPREDICTABLE>
    dfa4:	424c4d43 	submi	r4, ip, #4288	; 0x10c0
    dfa8:	0000ff70 	andeq	pc, r0, r0, ror pc	; <UNPREDICTABLE>
    dfac:	0000ff94 	muleq	r0, r4, pc	; <UNPREDICTABLE>

0000dfb0 <free>:
    dfb0:	e92d4038 	push	{r3, r4, r5, lr}
    dfb4:	e2504000 	subs	r4, r0, #0
    dfb8:	1a000003 	bne	dfcc <free+0x1c>
    dfbc:	e59f00f8 	ldr	r0, [pc, #248]	; e0bc <free+0x10c>
    dfc0:	e59f10f8 	ldr	r1, [pc, #248]	; e0c0 <free+0x110>
    dfc4:	e3a020a8 	mov	r2, #168	; 0xa8
    dfc8:	ebfff6f4 	bl	bba0 <assertion_failed>
    dfcc:	e2445010 	sub	r5, r4, #16
    dfd0:	e5543010 	ldrb	r3, [r4, #-16]
    dfd4:	e5d52001 	ldrb	r2, [r5, #1]
    dfd8:	e1832402 	orr	r2, r3, r2, lsl #8
    dfdc:	e5d53002 	ldrb	r3, [r5, #2]
    dfe0:	e1822803 	orr	r2, r2, r3, lsl #16
    dfe4:	e5d53003 	ldrb	r3, [r5, #3]
    dfe8:	e1822c03 	orr	r2, r2, r3, lsl #24
    dfec:	e59f30d0 	ldr	r3, [pc, #208]	; e0c4 <free+0x114>
    dff0:	e1520003 	cmp	r2, r3
    dff4:	0a000003 	beq	e008 <free+0x58>
    dff8:	e59f00c8 	ldr	r0, [pc, #200]	; e0c8 <free+0x118>
    dffc:	e59f10bc 	ldr	r1, [pc, #188]	; e0c0 <free+0x110>
    e000:	e3a020aa 	mov	r2, #170	; 0xaa
    e004:	ebfff6e5 	bl	bba0 <assertion_failed>
    e008:	e59f30bc 	ldr	r3, [pc, #188]	; e0cc <free+0x11c>
    e00c:	e5933000 	ldr	r3, [r3]
    e010:	e3530000 	cmp	r3, #0
    e014:	08bd8038 	popeq	{r3, r4, r5, pc}
    e018:	e5d52004 	ldrb	r2, [r5, #4]
    e01c:	e5d51005 	ldrb	r1, [r5, #5]
    e020:	e1821401 	orr	r1, r2, r1, lsl #8
    e024:	e5d52006 	ldrb	r2, [r5, #6]
    e028:	e1811802 	orr	r1, r1, r2, lsl #16
    e02c:	e5d52007 	ldrb	r2, [r5, #7]
    e030:	e1811c02 	orr	r1, r1, r2, lsl #24
    e034:	e1530001 	cmp	r3, r1
    e038:	159f3090 	ldrne	r3, [pc, #144]	; e0d0 <free+0x120>
    e03c:	1a000019 	bne	e0a8 <free+0xf8>
    e040:	ea000003 	b	e054 <free+0xa4>
    e044:	e2833008 	add	r3, r3, #8
    e048:	e1520001 	cmp	r2, r1
    e04c:	1a000015 	bne	e0a8 <free+0xf8>
    e050:	ea000000 	b	e058 <free+0xa8>
    e054:	e59f4070 	ldr	r4, [pc, #112]	; e0cc <free+0x11c>
    e058:	e59f3074 	ldr	r3, [pc, #116]	; e0d4 <free+0x124>
    e05c:	e5933010 	ldr	r3, [r3, #16]
    e060:	e3530000 	cmp	r3, #0
    e064:	0a000000 	beq	e06c <free+0xbc>
    e068:	ebffee03 	bl	987c <EnterCritical>
    e06c:	e5943004 	ldr	r3, [r4, #4]
    e070:	e5c53008 	strb	r3, [r5, #8]
    e074:	e1a02423 	lsr	r2, r3, #8
    e078:	e5c52009 	strb	r2, [r5, #9]
    e07c:	e1a02823 	lsr	r2, r3, #16
    e080:	e5c5200a 	strb	r2, [r5, #10]
    e084:	e1a03c23 	lsr	r3, r3, #24
    e088:	e5c5300b 	strb	r3, [r5, #11]
    e08c:	e5845004 	str	r5, [r4, #4]
    e090:	e59f303c 	ldr	r3, [pc, #60]	; e0d4 <free+0x124>
    e094:	e5933010 	ldr	r3, [r3, #16]
    e098:	e3530000 	cmp	r3, #0
    e09c:	08bd8038 	popeq	{r3, r4, r5, pc}
    e0a0:	ebffee05 	bl	98bc <LeaveCritical>
    e0a4:	e8bd8038 	pop	{r3, r4, r5, pc}
    e0a8:	e1a04003 	mov	r4, r3
    e0ac:	e5932000 	ldr	r2, [r3]
    e0b0:	e3520000 	cmp	r2, #0
    e0b4:	1affffe2 	bne	e044 <free+0x94>
    e0b8:	e8bd8038 	pop	{r3, r4, r5, pc}
    e0bc:	0000ffc0 	andeq	pc, r0, r0, asr #31
    e0c0:	0000ff64 	andeq	pc, r0, r4, ror #30
    e0c4:	424c4d43 	submi	r4, ip, #4288	; 0x10c0
    e0c8:	0000ff70 	andeq	pc, r0, r0, ror pc	; <UNPREDICTABLE>
    e0cc:	000100b0 	strheq	r0, [r1], -r0	; <UNPREDICTABLE>
    e0d0:	000100b8 	strheq	r0, [r1], -r8
    e0d4:	00010114 	andeq	r0, r1, r4, lsl r1

0000e0d8 <palloc>:
    e0d8:	e92d4010 	push	{r4, lr}
    e0dc:	e59f30d8 	ldr	r3, [pc, #216]	; e1bc <palloc+0xe4>
    e0e0:	e5933008 	ldr	r3, [r3, #8]
    e0e4:	e3530000 	cmp	r3, #0
    e0e8:	1a000003 	bne	e0fc <palloc+0x24>
    e0ec:	e59f00cc 	ldr	r0, [pc, #204]	; e1c0 <palloc+0xe8>
    e0f0:	e59f10cc 	ldr	r1, [pc, #204]	; e1c4 <palloc+0xec>
    e0f4:	e3a020c2 	mov	r2, #194	; 0xc2
    e0f8:	ebfff6a8 	bl	bba0 <assertion_failed>
    e0fc:	e59f30b8 	ldr	r3, [pc, #184]	; e1bc <palloc+0xe4>
    e100:	e5933014 	ldr	r3, [r3, #20]
    e104:	e3530000 	cmp	r3, #0
    e108:	0a000000 	beq	e110 <palloc+0x38>
    e10c:	ebffedda 	bl	987c <EnterCritical>
    e110:	e59f30a4 	ldr	r3, [pc, #164]	; e1bc <palloc+0xe4>
    e114:	e5934018 	ldr	r4, [r3, #24]
    e118:	e3540000 	cmp	r4, #0
    e11c:	0a00000d 	beq	e158 <palloc+0x80>
    e120:	e5942000 	ldr	r2, [r4]
    e124:	e59f309c 	ldr	r3, [pc, #156]	; e1c8 <palloc+0xf0>
    e128:	e1520003 	cmp	r2, r3
    e12c:	0a000003 	beq	e140 <palloc+0x68>
    e130:	e59f0094 	ldr	r0, [pc, #148]	; e1cc <palloc+0xf4>
    e134:	e59f1088 	ldr	r1, [pc, #136]	; e1c4 <palloc+0xec>
    e138:	e3a020d0 	mov	r2, #208	; 0xd0
    e13c:	ebfff697 	bl	bba0 <assertion_failed>
    e140:	e5942004 	ldr	r2, [r4, #4]
    e144:	e59f3070 	ldr	r3, [pc, #112]	; e1bc <palloc+0xe4>
    e148:	e5832018 	str	r2, [r3, #24]
    e14c:	e3a03000 	mov	r3, #0
    e150:	e5843000 	str	r3, [r4]
    e154:	ea00000d 	b	e190 <palloc+0xb8>
    e158:	e59f305c 	ldr	r3, [pc, #92]	; e1bc <palloc+0xe4>
    e15c:	e5934008 	ldr	r4, [r3, #8]
    e160:	e2842a01 	add	r2, r4, #4096	; 0x1000
    e164:	e5832008 	str	r2, [r3, #8]
    e168:	e593300c 	ldr	r3, [r3, #12]
    e16c:	e1520003 	cmp	r2, r3
    e170:	9a000006 	bls	e190 <palloc+0xb8>
    e174:	e59f3040 	ldr	r3, [pc, #64]	; e1bc <palloc+0xe4>
    e178:	e5933014 	ldr	r3, [r3, #20]
    e17c:	e3530000 	cmp	r3, #0
    e180:	0a000009 	beq	e1ac <palloc+0xd4>
    e184:	ebffedcc 	bl	98bc <LeaveCritical>
    e188:	e3a00000 	mov	r0, #0
    e18c:	e8bd8010 	pop	{r4, pc}
    e190:	e59f3024 	ldr	r3, [pc, #36]	; e1bc <palloc+0xe4>
    e194:	e5933014 	ldr	r3, [r3, #20]
    e198:	e3530000 	cmp	r3, #0
    e19c:	0a000004 	beq	e1b4 <palloc+0xdc>
    e1a0:	ebffedc5 	bl	98bc <LeaveCritical>
    e1a4:	e1a00004 	mov	r0, r4
    e1a8:	e8bd8010 	pop	{r4, pc}
    e1ac:	e3a00000 	mov	r0, #0
    e1b0:	e8bd8010 	pop	{r4, pc}
    e1b4:	e1a00004 	mov	r0, r4
    e1b8:	e8bd8010 	pop	{r4, pc}
    e1bc:	00010114 	andeq	r0, r1, r4, lsl r1
    e1c0:	0000ffcc 	andeq	pc, r0, ip, asr #31
    e1c4:	0000ff64 	andeq	pc, r0, r4, ror #30
    e1c8:	50474d43 	subpl	r4, r7, r3, asr #26
    e1cc:	0000ffe0 	andeq	pc, r0, r0, ror #31

0000e1d0 <pfree>:
    e1d0:	e92d4010 	push	{r4, lr}
    e1d4:	e2504000 	subs	r4, r0, #0
    e1d8:	1a000003 	bne	e1ec <pfree+0x1c>
    e1dc:	e59f0048 	ldr	r0, [pc, #72]	; e22c <pfree+0x5c>
    e1e0:	e59f1048 	ldr	r1, [pc, #72]	; e230 <pfree+0x60>
    e1e4:	e3a020e9 	mov	r2, #233	; 0xe9
    e1e8:	ebfff66c 	bl	bba0 <assertion_failed>
    e1ec:	e59f3040 	ldr	r3, [pc, #64]	; e234 <pfree+0x64>
    e1f0:	e5933014 	ldr	r3, [r3, #20]
    e1f4:	e3530000 	cmp	r3, #0
    e1f8:	0a000000 	beq	e200 <pfree+0x30>
    e1fc:	ebffed9e 	bl	987c <EnterCritical>
    e200:	e59f3030 	ldr	r3, [pc, #48]	; e238 <pfree+0x68>
    e204:	e5843000 	str	r3, [r4]
    e208:	e59f3024 	ldr	r3, [pc, #36]	; e234 <pfree+0x64>
    e20c:	e5932018 	ldr	r2, [r3, #24]
    e210:	e5842004 	str	r2, [r4, #4]
    e214:	e5834018 	str	r4, [r3, #24]
    e218:	e5933014 	ldr	r3, [r3, #20]
    e21c:	e3530000 	cmp	r3, #0
    e220:	08bd8010 	popeq	{r4, pc}
    e224:	ebffeda4 	bl	98bc <LeaveCritical>
    e228:	e8bd8010 	pop	{r4, pc}
    e22c:	00010004 	andeq	r0, r1, r4
    e230:	0000ff64 	andeq	pc, r0, r4, ror #30
    e234:	00010114 	andeq	r0, r1, r4, lsl r1
    e238:	50474d43 	subpl	r4, r7, r3, asr #26

0000e23c <_GLOBAL__sub_I_mem_init>:
    e23c:	e59f300c 	ldr	r3, [pc, #12]	; e250 <_GLOBAL__sub_I_mem_init+0x14>
    e240:	e3a02001 	mov	r2, #1
    e244:	e5832010 	str	r2, [r3, #16]
    e248:	e5832014 	str	r2, [r3, #20]
    e24c:	e12fff1e 	bx	lr
    e250:	00010114 	andeq	r0, r1, r4, lsl r1

0000e254 <_ZN11CBcmMailBoxC1Ej>:
    e254:	e5801000 	str	r1, [r0]
    e258:	e3a02000 	mov	r2, #0
    e25c:	e5802004 	str	r2, [r0, #4]
    e260:	e12fff1e 	bx	lr

0000e264 <_ZN11CBcmMailBoxD1Ev>:
    e264:	e12fff1e 	bx	lr

0000e268 <_ZN11CBcmMailBox5FlushEv>:
    e268:	e92d4070 	push	{r4, r5, r6, lr}
    e26c:	e59f402c 	ldr	r4, [pc, #44]	; e2a0 <_ZN11CBcmMailBox5FlushEv+0x38>
    e270:	e59f602c 	ldr	r6, [pc, #44]	; e2a4 <_ZN11CBcmMailBox5FlushEv+0x3c>
    e274:	e3a05014 	mov	r5, #20
    e278:	ea000003 	b	e28c <_ZN11CBcmMailBox5FlushEv+0x24>
    e27c:	e1a00006 	mov	r0, r6
    e280:	ebffec80 	bl	9488 <read32>
    e284:	e1a00005 	mov	r0, r5
    e288:	ebffef59 	bl	9ff4 <_ZN6CTimer13SimpleMsDelayEj>
    e28c:	e1a00004 	mov	r0, r4
    e290:	ebffec7c 	bl	9488 <read32>
    e294:	e3100101 	tst	r0, #1073741824	; 0x40000000
    e298:	0afffff7 	beq	e27c <_ZN11CBcmMailBox5FlushEv+0x14>
    e29c:	e8bd8070 	pop	{r4, r5, r6, pc}
    e2a0:	2000b898 	mulcs	r0, r8, r8
    e2a4:	2000b880 	andcs	fp, r0, r0, lsl #17

0000e2a8 <_ZN11CBcmMailBox4ReadEv>:
    e2a8:	e92d4070 	push	{r4, r5, r6, lr}
    e2ac:	e1a06000 	mov	r6, r0
    e2b0:	e59f4030 	ldr	r4, [pc, #48]	; e2e8 <_ZN11CBcmMailBox4ReadEv+0x40>
    e2b4:	e59f5030 	ldr	r5, [pc, #48]	; e2ec <_ZN11CBcmMailBox4ReadEv+0x44>
    e2b8:	e1a00004 	mov	r0, r4
    e2bc:	ebffec71 	bl	9488 <read32>
    e2c0:	e3100101 	tst	r0, #1073741824	; 0x40000000
    e2c4:	1afffffb 	bne	e2b8 <_ZN11CBcmMailBox4ReadEv+0x10>
    e2c8:	e1a00005 	mov	r0, r5
    e2cc:	ebffec6d 	bl	9488 <read32>
    e2d0:	e200200f 	and	r2, r0, #15
    e2d4:	e5963000 	ldr	r3, [r6]
    e2d8:	e1520003 	cmp	r2, r3
    e2dc:	1afffff5 	bne	e2b8 <_ZN11CBcmMailBox4ReadEv+0x10>
    e2e0:	e3c0000f 	bic	r0, r0, #15
    e2e4:	e8bd8070 	pop	{r4, r5, r6, pc}
    e2e8:	2000b898 	mulcs	r0, r8, r8
    e2ec:	2000b880 	andcs	fp, r0, r0, lsl #17

0000e2f0 <_ZN11CBcmMailBox5WriteEj>:
    e2f0:	e92d4070 	push	{r4, r5, r6, lr}
    e2f4:	e1a06000 	mov	r6, r0
    e2f8:	e1a05001 	mov	r5, r1
    e2fc:	e59f4038 	ldr	r4, [pc, #56]	; e33c <_ZN11CBcmMailBox5WriteEj+0x4c>
    e300:	e1a00004 	mov	r0, r4
    e304:	ebffec5f 	bl	9488 <read32>
    e308:	e3500000 	cmp	r0, #0
    e30c:	bafffffb 	blt	e300 <_ZN11CBcmMailBox5WriteEj+0x10>
    e310:	e315000f 	tst	r5, #15
    e314:	0a000003 	beq	e328 <_ZN11CBcmMailBox5WriteEj+0x38>
    e318:	e59f0020 	ldr	r0, [pc, #32]	; e340 <_ZN11CBcmMailBox5WriteEj+0x50>
    e31c:	e59f1020 	ldr	r1, [pc, #32]	; e344 <_ZN11CBcmMailBox5WriteEj+0x54>
    e320:	e3a0205a 	mov	r2, #90	; 0x5a
    e324:	ebfff61d 	bl	bba0 <assertion_failed>
    e328:	e5961000 	ldr	r1, [r6]
    e32c:	e59f0014 	ldr	r0, [pc, #20]	; e348 <_ZN11CBcmMailBox5WriteEj+0x58>
    e330:	e1851001 	orr	r1, r5, r1
    e334:	ebffec55 	bl	9490 <write32>
    e338:	e8bd8070 	pop	{r4, r5, r6, pc}
    e33c:	2000b898 	mulcs	r0, r8, r8
    e340:	00010010 	andeq	r0, r1, r0, lsl r0
    e344:	00010024 	andeq	r0, r1, r4, lsr #32
    e348:	2000b8a0 	andcs	fp, r0, r0, lsr #17

0000e34c <_ZN11CBcmMailBox9WriteReadEj>:
    e34c:	e92d4038 	push	{r3, r4, r5, lr}
    e350:	e1a04000 	mov	r4, r0
    e354:	e1a05001 	mov	r5, r1
    e358:	e3a03000 	mov	r3, #0
    e35c:	ee073fba 	mcr	15, 0, r3, cr7, cr10, {5}
    e360:	e5903004 	ldr	r3, [r0, #4]
    e364:	e3530000 	cmp	r3, #0
    e368:	0a000000 	beq	e370 <_ZN11CBcmMailBox9WriteReadEj+0x24>
    e36c:	ebffed42 	bl	987c <EnterCritical>
    e370:	e1a00004 	mov	r0, r4
    e374:	ebffffbb 	bl	e268 <_ZN11CBcmMailBox5FlushEv>
    e378:	e1a00004 	mov	r0, r4
    e37c:	e1a01005 	mov	r1, r5
    e380:	ebffffda 	bl	e2f0 <_ZN11CBcmMailBox5WriteEj>
    e384:	e1a00004 	mov	r0, r4
    e388:	ebffffc6 	bl	e2a8 <_ZN11CBcmMailBox4ReadEv>
    e38c:	e1a05000 	mov	r5, r0
    e390:	e5943004 	ldr	r3, [r4, #4]
    e394:	e3530000 	cmp	r3, #0
    e398:	0a000000 	beq	e3a0 <_ZN11CBcmMailBox9WriteReadEj+0x54>
    e39c:	ebffed46 	bl	98bc <LeaveCritical>
    e3a0:	e3a03000 	mov	r3, #0
    e3a4:	ee073fba 	mcr	15, 0, r3, cr7, cr10, {5}
    e3a8:	e1a00005 	mov	r0, r5
    e3ac:	e8bd8038 	pop	{r3, r4, r5, pc}

0000e3b0 <Divide>:
    e3b0:	e92d43f8 	push	{r3, r4, r5, r6, r7, r8, r9, lr}
    e3b4:	e1a08000 	mov	r8, r0
    e3b8:	e1a09002 	mov	r9, r2
    e3bc:	e2514000 	subs	r4, r1, #0
    e3c0:	1a000006 	bne	e3e0 <Divide+0x30>
    e3c4:	e59f00a8 	ldr	r0, [pc, #168]	; e474 <Divide+0xc4>
    e3c8:	e59f10a8 	ldr	r1, [pc, #168]	; e478 <Divide+0xc8>
    e3cc:	e3a0201f 	mov	r2, #31
    e3d0:	ebfff5f2 	bl	bba0 <assertion_failed>
    e3d4:	ebfffbb1 	bl	d2a0 <_ZN17CExceptionHandler3GetEv>
    e3d8:	e3a01000 	mov	r1, #0
    e3dc:	ebfffb66 	bl	d17c <_ZN17CExceptionHandler5ThrowEj>
    e3e0:	e3a05000 	mov	r5, #0
    e3e4:	e1a02008 	mov	r2, r8
    e3e8:	e3a03000 	mov	r3, #0
    e3ec:	e1550003 	cmp	r5, r3
    e3f0:	01540002 	cmpeq	r4, r2
    e3f4:	33a01001 	movcc	r1, #1
    e3f8:	3a000002 	bcc	e408 <Divide+0x58>
    e3fc:	e3a01000 	mov	r1, #0
    e400:	e3a00000 	mov	r0, #0
    e404:	ea00000b 	b	e438 <Divide+0x88>
    e408:	e0946004 	adds	r6, r4, r4
    e40c:	e0a57005 	adc	r7, r5, r5
    e410:	e1a04006 	mov	r4, r6
    e414:	e1a05007 	mov	r5, r7
    e418:	e2810001 	add	r0, r1, #1
    e41c:	e1570003 	cmp	r7, r3
    e420:	01560002 	cmpeq	r6, r2
    e424:	31a01000 	movcc	r1, r0
    e428:	3afffff6 	bcc	e408 <Divide+0x58>
    e42c:	e3500000 	cmp	r0, #0
    e430:	1afffff2 	bne	e400 <Divide+0x50>
    e434:	ea00000b 	b	e468 <Divide+0xb8>
    e438:	e1a00080 	lsl	r0, r0, #1
    e43c:	e1a06008 	mov	r6, r8
    e440:	e3a07000 	mov	r7, #0
    e444:	e1570005 	cmp	r7, r5
    e448:	01560004 	cmpeq	r6, r4
    e44c:	23800001 	orrcs	r0, r0, #1
    e450:	20648008 	rsbcs	r8, r4, r8
    e454:	e1b050a5 	lsrs	r5, r5, #1
    e458:	e1a04064 	rrx	r4, r4
    e45c:	e2411001 	sub	r1, r1, #1
    e460:	e3710001 	cmn	r1, #1
    e464:	1afffff3 	bne	e438 <Divide+0x88>
    e468:	e3590000 	cmp	r9, #0
    e46c:	15898000 	strne	r8, [r9]
    e470:	e8bd83f8 	pop	{r3, r4, r5, r6, r7, r8, r9, pc}
    e474:	0000fe24 	andeq	pc, r0, r4, lsr #28
    e478:	00010034 	andeq	r0, r1, r4, lsr r0

0000e47c <memcpyblk>:
    e47c:	e92d0079 	push	{r0, r3, r4, r5, r6}
    e480:	e8b10078 	ldm	r1!, {r3, r4, r5, r6}
    e484:	e2522010 	subs	r2, r2, #16
    e488:	e8a00078 	stmia	r0!, {r3, r4, r5, r6}
    e48c:	f5d1f040 	pld	[r1, #64]	; 0x40
    e490:	1afffffa 	bne	e480 <memcpyblk+0x4>
    e494:	e8bd0079 	pop	{r0, r3, r4, r5, r6}
    e498:	e12fff1e 	bx	lr

0000e49c <_ZN15CBcmFrameBufferC1Ejjj>:
    e49c:	e92d40f0 	push	{r4, r5, r6, r7, lr}
    e4a0:	e24dd02c 	sub	sp, sp, #44	; 0x2c
    e4a4:	e1a04000 	mov	r4, r0
    e4a8:	e1a06001 	mov	r6, r1
    e4ac:	e1a05002 	mov	r5, r2
    e4b0:	e1a07003 	mov	r7, r3
    e4b4:	e2800004 	add	r0, r0, #4
    e4b8:	e3a01001 	mov	r1, #1
    e4bc:	ebffff64 	bl	e254 <_ZN11CBcmMailBoxC1Ej>
    e4c0:	e3550000 	cmp	r5, #0
    e4c4:	13560000 	cmpne	r6, #0
    e4c8:	1a00000f 	bne	e50c <_ZN15CBcmFrameBufferC1Ejjj+0x70>
    e4cc:	e28d000c 	add	r0, sp, #12
    e4d0:	ebffe8d3 	bl	8824 <_ZN16CBcmPropertyTagsC1Ev>
    e4d4:	e3a03000 	mov	r3, #0
    e4d8:	e58d3000 	str	r3, [sp]
    e4dc:	e28d000c 	add	r0, sp, #12
    e4e0:	e59f10b8 	ldr	r1, [pc, #184]	; e5a0 <_ZN15CBcmFrameBufferC1Ejjj+0x104>
    e4e4:	e28d2014 	add	r2, sp, #20
    e4e8:	e3a03014 	mov	r3, #20
    e4ec:	ebffe8d7 	bl	8850 <_ZN16CBcmPropertyTags6GetTagEjPvjj>
    e4f0:	e3500000 	cmp	r0, #0
    e4f4:	159d6020 	ldrne	r6, [sp, #32]
    e4f8:	159d5024 	ldrne	r5, [sp, #36]	; 0x24
    e4fc:	03a05e1e 	moveq	r5, #480	; 0x1e0
    e500:	03a06d0a 	moveq	r6, #640	; 0x280
    e504:	e28d000c 	add	r0, sp, #12
    e508:	ebffe8cb 	bl	883c <_ZN16CBcmPropertyTagsD1Ev>
    e50c:	e3570008 	cmp	r7, #8
    e510:	1a000007 	bne	e534 <_ZN15CBcmFrameBufferC1Ejjj+0x98>
    e514:	e3a00f8a 	mov	r0, #552	; 0x228
    e518:	ebffecca 	bl	9848 <_Znaj>
    e51c:	e5840000 	str	r0, [r4]
    e520:	e2800028 	add	r0, r0, #40	; 0x28
    e524:	e3a01000 	mov	r1, #0
    e528:	e3a02c02 	mov	r2, #512	; 0x200
    e52c:	ebffef5b 	bl	a2a0 <memset>
    e530:	ea000002 	b	e540 <_ZN15CBcmFrameBufferC1Ejjj+0xa4>
    e534:	e3a00028 	mov	r0, #40	; 0x28
    e538:	ebffecbf 	bl	983c <_Znwj>
    e53c:	e5840000 	str	r0, [r4]
    e540:	e5943000 	ldr	r3, [r4]
    e544:	e5836000 	str	r6, [r3]
    e548:	e5943000 	ldr	r3, [r4]
    e54c:	e5835004 	str	r5, [r3, #4]
    e550:	e5943000 	ldr	r3, [r4]
    e554:	e5836008 	str	r6, [r3, #8]
    e558:	e5943000 	ldr	r3, [r4]
    e55c:	e583500c 	str	r5, [r3, #12]
    e560:	e5943000 	ldr	r3, [r4]
    e564:	e3a02000 	mov	r2, #0
    e568:	e5832010 	str	r2, [r3, #16]
    e56c:	e5943000 	ldr	r3, [r4]
    e570:	e5837014 	str	r7, [r3, #20]
    e574:	e5943000 	ldr	r3, [r4]
    e578:	e5832018 	str	r2, [r3, #24]
    e57c:	e5943000 	ldr	r3, [r4]
    e580:	e583201c 	str	r2, [r3, #28]
    e584:	e5943000 	ldr	r3, [r4]
    e588:	e5832020 	str	r2, [r3, #32]
    e58c:	e5943000 	ldr	r3, [r4]
    e590:	e5832024 	str	r2, [r3, #36]	; 0x24
    e594:	e1a00004 	mov	r0, r4
    e598:	e28dd02c 	add	sp, sp, #44	; 0x2c
    e59c:	e8bd80f0 	pop	{r4, r5, r6, r7, pc}
    e5a0:	00040003 	andeq	r0, r4, r3

0000e5a4 <_ZN15CBcmFrameBufferD1Ev>:
    e5a4:	e92d4010 	push	{r4, lr}
    e5a8:	e1a04000 	mov	r4, r0
    e5ac:	e5900000 	ldr	r0, [r0]
    e5b0:	ebffeca7 	bl	9854 <_ZdlPv>
    e5b4:	e1a00004 	mov	r0, r4
    e5b8:	e3a03000 	mov	r3, #0
    e5bc:	e4803004 	str	r3, [r0], #4
    e5c0:	ebffff27 	bl	e264 <_ZN11CBcmMailBoxD1Ev>
    e5c4:	e1a00004 	mov	r0, r4
    e5c8:	e8bd8010 	pop	{r4, pc}

0000e5cc <_ZN15CBcmFrameBuffer10SetPaletteEht>:
    e5cc:	e5903000 	ldr	r3, [r0]
    e5d0:	e5930014 	ldr	r0, [r3, #20]
    e5d4:	e3500008 	cmp	r0, #8
    e5d8:	02811014 	addeq	r1, r1, #20
    e5dc:	01a01081 	lsleq	r1, r1, #1
    e5e0:	018320b1 	strheq	r2, [r3, r1]
    e5e4:	e12fff1e 	bx	lr

0000e5e8 <_ZN15CBcmFrameBuffer10InitializeEv>:
    e5e8:	e92d4010 	push	{r4, lr}
    e5ec:	e1a04000 	mov	r4, r0
    e5f0:	e3a03000 	mov	r3, #0
    e5f4:	ee073f1a 	mcr	15, 0, r3, cr7, cr10, {0}
    e5f8:	ee073f9a 	mcr	15, 0, r3, cr7, cr10, {4}
    e5fc:	e5901000 	ldr	r1, [r0]
    e600:	e2800004 	add	r0, r0, #4
    e604:	e2811101 	add	r1, r1, #1073741824	; 0x40000000
    e608:	ebffff4f 	bl	e34c <_ZN11CBcmMailBox9WriteReadEj>
    e60c:	e3a03000 	mov	r3, #0
    e610:	ee073f16 	mcr	15, 0, r3, cr7, cr6, {0}
    e614:	e3500000 	cmp	r0, #0
    e618:	1a000004 	bne	e630 <_ZN15CBcmFrameBuffer10InitializeEv+0x48>
    e61c:	e5943000 	ldr	r3, [r4]
    e620:	e5930020 	ldr	r0, [r3, #32]
    e624:	e2900000 	adds	r0, r0, #0
    e628:	13a00001 	movne	r0, #1
    e62c:	e8bd8010 	pop	{r4, pc}
    e630:	e3a00000 	mov	r0, #0
    e634:	e8bd8010 	pop	{r4, pc}

0000e638 <_ZNK15CBcmFrameBuffer8GetWidthEv>:
    e638:	e5903000 	ldr	r3, [r0]
    e63c:	e5930000 	ldr	r0, [r3]
    e640:	e12fff1e 	bx	lr

0000e644 <_ZNK15CBcmFrameBuffer9GetHeightEv>:
    e644:	e5903000 	ldr	r3, [r0]
    e648:	e5930004 	ldr	r0, [r3, #4]
    e64c:	e12fff1e 	bx	lr

0000e650 <_ZNK15CBcmFrameBuffer8GetPitchEv>:
    e650:	e5903000 	ldr	r3, [r0]
    e654:	e5930010 	ldr	r0, [r3, #16]
    e658:	e12fff1e 	bx	lr

0000e65c <_ZNK15CBcmFrameBuffer8GetDepthEv>:
    e65c:	e5903000 	ldr	r3, [r0]
    e660:	e5930014 	ldr	r0, [r3, #20]
    e664:	e12fff1e 	bx	lr

0000e668 <_ZNK15CBcmFrameBuffer9GetBufferEv>:
    e668:	e5903000 	ldr	r3, [r0]
    e66c:	e5930020 	ldr	r0, [r3, #32]
    e670:	e12fff1e 	bx	lr

0000e674 <_ZNK15CBcmFrameBuffer7GetSizeEv>:
    e674:	e5903000 	ldr	r3, [r0]
    e678:	e5930024 	ldr	r0, [r3, #36]	; 0x24
    e67c:	e12fff1e 	bx	lr

0000e680 <_ZN7CDeviceD1Ev>:
    e680:	e59f3004 	ldr	r3, [pc, #4]	; e68c <_ZN7CDeviceD1Ev+0xc>
    e684:	e5803000 	str	r3, [r0]
    e688:	e12fff1e 	bx	lr
    e68c:	00010050 	andeq	r0, r1, r0, asr r0

0000e690 <_ZN7CDevice4ReadEPvj>:
    e690:	e3e00000 	mvn	r0, #0
    e694:	e12fff1e 	bx	lr

0000e698 <_ZN7CDevice5WriteEPKvj>:
    e698:	e3e00000 	mvn	r0, #0
    e69c:	e12fff1e 	bx	lr

0000e6a0 <_ZN7CDevice4SeekEy>:
    e6a0:	e3e00000 	mvn	r0, #0
    e6a4:	e3e01000 	mvn	r1, #0
    e6a8:	e12fff1e 	bx	lr

0000e6ac <_ZN7CDeviceD0Ev>:
    e6ac:	e92d4010 	push	{r4, lr}
    e6b0:	e1a04000 	mov	r4, r0
    e6b4:	ebfffff1 	bl	e680 <_ZN7CDeviceD1Ev>
    e6b8:	e1a00004 	mov	r0, r4
    e6bc:	ebffec64 	bl	9854 <_ZdlPv>
    e6c0:	e1a00004 	mov	r0, r4
    e6c4:	e8bd8010 	pop	{r4, pc}

0000e6c8 <_ZN7CDeviceC1Ev>:
    e6c8:	e59f3004 	ldr	r3, [pc, #4]	; e6d4 <_ZN7CDeviceC1Ev+0xc>
    e6cc:	e5803000 	str	r3, [r0]
    e6d0:	e12fff1e 	bx	lr
    e6d4:	00010050 	andeq	r0, r1, r0, asr r0

Disassembly of section .rodata:

0000e6d8 <_ZL10FromKernel>:
    e6d8:	6e72656b 	cdpvs	5, 7, cr6, cr2, cr11, {3}
    e6dc:	00006c65 	andeq	r6, r0, r5, ror #24
    e6e0:	706d6f43 	rsbvc	r6, sp, r3, asr #30
    e6e4:	20656c69 	rsbcs	r6, r5, r9, ror #24
    e6e8:	656d6974 	strbvs	r6, [sp, #-2420]!	; 0x974
    e6ec:	7041203a 	subvc	r2, r1, sl, lsr r0
    e6f0:	33322072 	teqcc	r2, #114	; 0x72
    e6f4:	31303220 	teqcc	r0, r0, lsr #4
    e6f8:	31312035 	teqcc	r1, r5, lsr r0
    e6fc:	3a34303a 	bcc	d1a7ec <_end+0xd0a6bc>
    e700:	00003233 	andeq	r3, r0, r3, lsr r2
    e704:	6d61536e 	stclvs	3, cr5, [r1, #-440]!	; 0xfffffe48
    e708:	73656c70 	cmnvc	r5, #112, 24	; 0x7000
    e70c:	30203e20 	eorcc	r3, r0, r0, lsr #28
    e710:	00000000 	andeq	r0, r0, r0
    e714:	6e72656b 	cdpvs	5, 7, cr6, cr2, cr11, {3}
    e718:	632e6c65 	teqvs	lr, #25856	; 0x6500
    e71c:	00007070 	andeq	r7, r0, r0, ror r0
    e720:	20746f4e 	rsbscs	r6, r4, lr, asr #30
    e724:	756f6e65 	strbvc	r6, [pc, #-3685]!	; d8c7 <_ZN12CGPIOManagerD1Ev+0x5f>
    e728:	6d206867 	stcvs	8, cr6, [r0, #-412]!	; 0xfffffe64
    e72c:	726f6d65 	rsbvc	r6, pc, #6464	; 0x1940
    e730:	00000079 	andeq	r0, r0, r9, ror r0
    e734:	7361654d 	cmnvc	r1, #322961408	; 0x13400000
    e738:	6d657275 	sfmvs	f7, 2, [r5, #-468]!	; 0xfffffe2c
    e73c:	20746e65 	rsbscs	r6, r4, r5, ror #28
    e740:	7220666f 	eorvc	r6, r0, #116391936	; 0x6f00000
    e744:	74206e75 	strtvc	r6, [r0], #-3701	; 0xe75
    e748:	20656d69 	rsbcs	r6, r5, r9, ror #26
    e74c:	6c696166 	stfvse	f6, [r9], #-408	; 0xfffffe68
    e750:	202c6465 	eorcs	r6, ip, r5, ror #8
    e754:	20797274 	rsbscs	r7, r9, r4, ror r2
    e758:	69616761 	stmdbvs	r1!, {r0, r5, r6, r8, r9, sl, sp, lr}^
    e75c:	0000216e 	andeq	r2, r0, lr, ror #2
    e760:	706d6153 	rsbvc	r6, sp, r3, asr r1
    e764:	676e696c 	strbvs	r6, [lr, -ip, ror #18]!
    e768:	74617220 	strbtvc	r7, [r1], #-544	; 0x220
    e76c:	61772065 	cmnvs	r7, r5, rrx
    e770:	75252073 	strvc	r2, [r5, #-115]!	; 0x73
    e774:	7a484b20 	bvc	12213fc <_end+0x12112cc>
    e778:	00000000 	andeq	r0, r0, r0
    e77c:	70736944 	rsbsvc	r6, r3, r4, asr #18
    e780:	2079616c 	rsbscs	r6, r9, ip, ror #2
    e784:	65766f63 	ldrbvs	r6, [r6, #-3939]!	; 0xf63
    e788:	25207372 	strcs	r7, [r0, #-882]!	; 0x372
    e78c:	73752075 	cmnvc	r5, #117	; 0x75
    e790:	00000000 	andeq	r0, r0, r0
    e794:	65722041 	ldrbvs	r2, [r2, #-65]!	; 0x41
    e798:	696c2064 	stmdbvs	ip!, {r2, r5, r6, sp}^
    e79c:	6920656e 	stmdbvs	r0!, {r1, r2, r3, r5, r6, r8, sl, sp, lr}
    e7a0:	72642073 	rsbvc	r2, r4, #115	; 0x73
    e7a4:	206e7761 	rsbcs	r7, lr, r1, ror #14
    e7a8:	65206e6f 	strvs	r6, [r0, #-3695]!	; 0xe6f
    e7ac:	79726576 	ldmdbvc	r2!, {r1, r2, r4, r5, r6, r8, sl, sp, lr}^
    e7b0:	20303120 	eorscs	r3, r0, r0, lsr #2
    e7b4:	00007375 	andeq	r7, r0, r5, ror r3
    e7b8:	66754270 			; <UNDEFINED> instruction: 0x66754270
    e7bc:	20726566 	rsbscs	r6, r2, r6, ror #10
    e7c0:	30203d21 	eorcc	r3, r0, r1, lsr #26
    e7c4:	00000000 	andeq	r0, r0, r0
    e7c8:	67615470 			; <UNDEFINED> instruction: 0x67615470
    e7cc:	203d2120 	eorscs	r2, sp, r0, lsr #2
    e7d0:	00000030 	andeq	r0, r0, r0, lsr r0
    e7d4:	706d6362 	rsbvc	r6, sp, r2, ror #6
    e7d8:	65706f72 	ldrbvs	r6, [r0, #-3954]!	; 0xf72
    e7dc:	74797472 	ldrbtvc	r7, [r9], #-1138	; 0x472
    e7e0:	2e736761 	cdpcs	7, 7, cr6, cr3, cr1, {3}
    e7e4:	00707063 	rsbseq	r7, r0, r3, rrx
    e7e8:	6761546e 	strbvs	r5, [r1, -lr, ror #8]!
    e7ec:	657a6953 	ldrbvs	r6, [sl, #-2387]!	; 0x953
    e7f0:	203d3e20 	eorscs	r3, sp, r0, lsr #28
    e7f4:	657a6973 	ldrbvs	r6, [sl, #-2419]!	; 0x973
    e7f8:	2820666f 	stmdacs	r0!, {r0, r1, r2, r3, r5, r6, r9, sl, sp, lr}
    e7fc:	6f725054 	svcvs	0x00725054
    e800:	74726570 	ldrbtvc	r6, [r2], #-1392	; 0x570
    e804:	67615479 			; <UNDEFINED> instruction: 0x67615479
    e808:	706d6953 	rsbvc	r6, sp, r3, asr r9
    e80c:	0029656c 	eoreq	r6, r9, ip, ror #10
    e810:	75426e28 	strbvc	r6, [r2, #-3624]	; 0xe28
    e814:	72656666 	rsbvc	r6, r5, #106954752	; 0x6600000
    e818:	657a6953 	ldrbvs	r6, [sl, #-2387]!	; 0x953
    e81c:	33202620 	teqcc	r0, #32, 12	; 0x2000000
    e820:	3d3d2029 	ldccc	0, cr2, [sp, #-164]!	; 0xffffff5c
    e824:	00003020 	andeq	r3, r0, r0, lsr #32

0000e828 <_ZTV8CGPIOPin>:
	...
    e830:	0000899c 	muleq	r0, ip, r9
    e834:	000089c0 	andeq	r8, r0, r0, asr #19

0000e838 <_ZZN8CGPIOPin20SetAlternateFunctionEjE11FunctionMap>:
    e838:	00000004 	andeq	r0, r0, r4
    e83c:	00000005 	andeq	r0, r0, r5
    e840:	00000006 	andeq	r0, r0, r6
    e844:	00000007 	andeq	r0, r0, r7
    e848:	00000003 	andeq	r0, r0, r3
    e84c:	00000002 	andeq	r0, r0, r2
    e850:	6f4d5f6d 	svcvs	0x004d5f6d
    e854:	3c206564 	cfstr32cc	mvfx6, [r0], #-400	; 0xfffffe70
    e858:	49504720 	ldmdbmi	r0, {r5, r8, r9, sl, lr}^
    e85c:	646f4d4f 	strbtvs	r4, [pc], #-3407	; e864 <_ZZN8CGPIOPin20SetAlternateFunctionEjE11FunctionMap+0x2c>
    e860:	746c4165 	strbtvc	r4, [ip], #-357	; 0x165
    e864:	616e7265 	cmnvs	lr, r5, ror #4
    e868:	75466574 	strbvc	r6, [r6, #-1396]	; 0x574
    e86c:	6974636e 	ldmdbvs	r4!, {r1, r2, r3, r5, r6, r8, r9, sp, lr}^
    e870:	00306e6f 	eorseq	r6, r0, pc, ror #28
    e874:	6f697067 	svcvs	0x00697067
    e878:	2e6e6970 	mcrcs	9, 3, r6, cr14, cr0, {3}
    e87c:	00707063 	rsbseq	r7, r0, r3, rrx
    e880:	6c61566e 	stclvs	6, cr5, [r1], #-440	; 0xfffffe48
    e884:	3d206575 	cfstr32cc	mvfx6, [r0, #-468]!	; 0xfffffe2c
    e888:	4f4c203d 	svcmi	0x004c203d
    e88c:	7c7c2057 	ldclvc	0, cr2, [ip], #-348	; 0xfffffea4
    e890:	61566e20 	cmpvs	r6, r0, lsr #28
    e894:	2065756c 	rsbcs	r7, r5, ip, ror #10
    e898:	48203d3d 	stmdami	r0!, {r0, r2, r3, r4, r5, r8, sl, fp, ip, sp}
    e89c:	00484749 	subeq	r4, r8, r9, asr #14
    e8a0:	506e5f6d 	rsbpl	r5, lr, sp, ror #30
    e8a4:	3c206e69 	stccc	14, cr6, [r0], #-420	; 0xfffffe5c
    e8a8:	49504720 	ldmdbmi	r0, {r5, r8, r9, sl, lr}^
    e8ac:	49505f4f 	ldmdbmi	r0, {r0, r1, r2, r3, r6, r8, r9, sl, fp, ip, lr}^
    e8b0:	0000534e 	andeq	r5, r0, lr, asr #6
    e8b4:	6f4d5f6d 	svcvs	0x004d5f6d
    e8b8:	3d206564 	cfstr32cc	mvfx6, [r0, #-400]!	; 0xfffffe70
    e8bc:	5047203d 	subpl	r2, r7, sp, lsr r0
    e8c0:	6f4d4f49 	svcvs	0x004d4f49
    e8c4:	6e496564 	cdpvs	5, 4, cr6, cr9, cr4, {3}
    e8c8:	20747570 	rsbscs	r7, r4, r0, ror r5
    e8cc:	6d207c7c 	stcvs	12, cr7, [r0, #-496]!	; 0xfffffe10
    e8d0:	646f4d5f 	strbtvs	r4, [pc], #-3423	; e8d8 <_ZZN8CGPIOPin20SetAlternateFunctionEjE11FunctionMap+0xa0>
    e8d4:	3d3d2065 	ldccc	0, cr2, [sp, #-404]!	; 0xfffffe6c
    e8d8:	49504720 	ldmdbmi	r0, {r5, r8, r9, sl, lr}^
    e8dc:	646f4d4f 	strbtvs	r4, [pc], #-3407	; e8e4 <_ZZN8CGPIOPin20SetAlternateFunctionEjE11FunctionMap+0xac>
    e8e0:	706e4965 	rsbvc	r4, lr, r5, ror #18
    e8e4:	75507475 	ldrbvc	r7, [r0, #-1141]	; 0x475
    e8e8:	70556c6c 	subsvc	r6, r5, ip, ror #24
    e8ec:	207c7c20 	rsbscs	r7, ip, r0, lsr #24
    e8f0:	6f4d5f6d 	svcvs	0x004d5f6d
    e8f4:	3d206564 	cfstr32cc	mvfx6, [r0, #-400]!	; 0xfffffe70
    e8f8:	5047203d 	subpl	r2, r7, sp, lsr r0
    e8fc:	6f4d4f49 	svcvs	0x004d4f49
    e900:	6e496564 	cdpvs	5, 4, cr6, cr9, cr4, {3}
    e904:	50747570 	rsbspl	r7, r4, r0, ror r5
    e908:	446c6c75 	strbtmi	r6, [ip], #-3189	; 0xc75
    e90c:	006e776f 	rsbeq	r7, lr, pc, ror #14
    e910:	6f4d5f6d 	svcvs	0x004d5f6d
    e914:	3d206564 	cfstr32cc	mvfx6, [r0, #-400]!	; 0xfffffe70
    e918:	5047203d 	subpl	r2, r7, sp, lsr r0
    e91c:	6f4d4f49 	svcvs	0x004d4f49
    e920:	754f6564 	strbvc	r6, [pc, #-1380]	; e3c4 <Divide+0x14>
    e924:	74757074 	ldrbtvc	r7, [r5], #-116	; 0x74
    e928:	00000000 	andeq	r0, r0, r0
    e92c:	6e495f6d 	cdpvs	15, 4, cr5, cr9, cr13, {3}
    e930:	72726574 	rsbsvc	r6, r2, #116, 10	; 0x1d000000
    e934:	20747075 	rsbscs	r7, r4, r5, ror r0
    e938:	47203d3d 			; <UNDEFINED> instruction: 0x47203d3d
    e93c:	494f4950 	stmdbmi	pc, {r4, r6, r8, fp, lr}^	; <UNPREDICTABLE>
    e940:	7265746e 	rsbvc	r7, r5, #1845493760	; 0x6e000000
    e944:	74707572 	ldrbtvc	r7, [r0], #-1394	; 0x572
    e948:	6e6b6e55 	mcrvs	14, 3, r6, cr11, cr5, {2}
    e94c:	006e776f 	rsbeq	r7, lr, pc, ror #14
    e950:	6e614870 	mcrvs	8, 3, r4, cr1, cr0, {3}
    e954:	72656c64 	rsbvc	r6, r5, #100, 24	; 0x6400
    e958:	203d2120 	eorscs	r2, sp, r0, lsr #2
    e95c:	00000030 	andeq	r0, r0, r0, lsr r0
    e960:	48705f6d 	ldmdami	r0!, {r0, r2, r3, r5, r6, r8, r9, sl, fp, ip, lr}^
    e964:	6c646e61 	stclvs	14, cr6, [r4], #-388	; 0xfffffe7c
    e968:	3d207265 	sfmcc	f7, 4, [r0, #-404]!	; 0xfffffe6c
    e96c:	0030203d 	eorseq	r2, r0, sp, lsr r0
    e970:	4d705f6d 	ldclmi	15, cr5, [r0, #-436]!	; 0xfffffe4c
    e974:	67616e61 	strbvs	r6, [r1, -r1, ror #28]!
    e978:	21207265 	teqcs	r0, r5, ror #4
    e97c:	0030203d 	eorseq	r2, r0, sp, lsr r0
    e980:	48705f6d 	ldmdami	r0!, {r0, r2, r3, r5, r6, r8, r9, sl, fp, ip, lr}^
    e984:	6c646e61 	stclvs	14, cr6, [r4], #-388	; 0xfffffe7c
    e988:	21207265 	teqcs	r0, r5, ror #4
    e98c:	0030203d 	eorseq	r2, r0, sp, lsr r0
    e990:	65746e49 	ldrbvs	r6, [r4, #-3657]!	; 0xe49
    e994:	70757272 	rsbsvc	r7, r5, r2, ror r2
    e998:	203c2074 	eorscs	r2, ip, r4, ror r0
    e99c:	4f495047 	svcmi	0x00495047
    e9a0:	65746e49 	ldrbvs	r6, [r4, #-3657]!	; 0xe49
    e9a4:	70757272 	rsbsvc	r7, r5, r2, ror r2
    e9a8:	6b6e5574 	blvs	1ba3f80 <_end+0x1b93e50>
    e9ac:	6e776f6e 	cdpvs	15, 7, cr6, cr7, cr14, {3}
    e9b0:	00000000 	andeq	r0, r0, r0
    e9b4:	6e495f6d 	cdpvs	15, 4, cr5, cr9, cr13, {3}
    e9b8:	72726574 	rsbsvc	r6, r2, #116, 10	; 0x1d000000
    e9bc:	20747075 	rsbscs	r7, r4, r5, ror r0
    e9c0:	5047203c 	subpl	r2, r7, ip, lsr r0
    e9c4:	6e494f49 	cdpvs	15, 4, cr4, cr9, cr9, {2}
    e9c8:	72726574 	rsbsvc	r6, r2, #116, 10	; 0x1d000000
    e9cc:	55747075 	ldrbpl	r7, [r4, #-117]!	; 0x75
    e9d0:	6f6e6b6e 	svcvs	0x006e6b6e
    e9d4:	00006e77 	andeq	r6, r0, r7, ror lr
    e9d8:	646f4d6e 	strbtvs	r4, [pc], #-3438	; e9e0 <_ZZN8CGPIOPin20SetAlternateFunctionEjE11FunctionMap+0x1a8>
    e9dc:	3d3c2065 	ldccc	0, cr2, [ip, #-404]!	; 0xfffffe6c
    e9e0:	00003220 	andeq	r3, r0, r0, lsr #4
    e9e4:	6e75466e 	cdpvs	6, 7, cr4, cr5, cr14, {3}
    e9e8:	6f697463 	svcvs	0x00697463
    e9ec:	3d3c206e 	ldccc	0, cr2, [ip, #-440]!	; 0xfffffe48
    e9f0:	00003520 	andeq	r3, r0, r0, lsr #10
    e9f4:	65646f4d 	strbvs	r6, [r4, #-3917]!	; 0xf4d
    e9f8:	47203c20 	strmi	r3, [r0, -r0, lsr #24]!
    e9fc:	4d4f4950 	stclmi	9, cr4, [pc, #-320]	; e8c4 <_ZZN8CGPIOPin20SetAlternateFunctionEjE11FunctionMap+0x8c>
    ea00:	5565646f 	strbpl	r6, [r5, #-1135]!	; 0x46f
    ea04:	6f6e6b6e 	svcvs	0x006e6b6e
    ea08:	00006e77 	andeq	r6, r0, r7, ror lr
    ea0c:	6e69506e 	cdpvs	0, 6, cr5, cr9, cr14, {3}
    ea10:	47203c20 	strmi	r3, [r0, -r0, lsr #24]!
    ea14:	5f4f4950 	svcpl	0x004f4950
    ea18:	534e4950 	movtpl	r4, #59728	; 0xe950
    ea1c:	00000000 	andeq	r0, r0, r0
    ea20:	45625f6d 	strbmi	r5, [r2, #-3949]!	; 0xf6d
    ea24:	6c62616e 	stfvse	f6, [r2], #-440	; 0xfffffe48
    ea28:	554d4d65 	strbpl	r4, [sp, #-3429]	; 0xd65
    ea2c:	00000000 	andeq	r0, r0, r0
    ea30:	6f6d656d 	svcvs	0x006d656d
    ea34:	632e7972 	teqvs	lr, #1867776	; 0x1c8000
    ea38:	00007070 	andeq	r7, r0, r0, ror r0
    ea3c:	546e2821 	strbtpl	r2, [lr], #-2081	; 0x821
    ea40:	7954424c 	ldmdbvc	r4, {r2, r3, r6, r9, lr}^
    ea44:	26206570 			; <UNDEFINED> instruction: 0x26206570
    ea48:	4d524120 	ldfmie	f4, [r2, #-128]	; 0xffffff80
    ea4c:	424c545f 	submi	r5, ip, #1593835520	; 0x5f000000
    ea50:	5059545f 	subspl	r5, r9, pc, asr r4
    ea54:	45535f45 	ldrbmi	r5, [r3, #-3909]	; 0xf45
    ea58:	41524150 	cmpmi	r2, r0, asr r1
    ea5c:	545f4554 	ldrbpl	r4, [pc], #-1364	; ea64 <_ZZN8CGPIOPin20SetAlternateFunctionEjE11FunctionMap+0x22c>
    ea60:	2953424c 	ldmdbcs	r3, {r2, r3, r6, r9, lr}^
    ea64:	00000000 	andeq	r0, r0, r0
    ea68:	50705f6d 	rsbspl	r5, r0, sp, ror #30
    ea6c:	54656761 	strbtpl	r6, [r5], #-1889	; 0x761
    ea70:	656c6261 	strbvs	r6, [ip, #-609]!	; 0x261
    ea74:	66654430 			; <UNDEFINED> instruction: 0x66654430
    ea78:	746c7561 	strbtvc	r7, [ip], #-1377	; 0x561
    ea7c:	203d2120 	eorscs	r2, sp, r0, lsr #2
    ea80:	00000030 	andeq	r0, r0, r0, lsr r0
    ea84:	50705f6d 	rsbspl	r5, r0, sp, ror #30
    ea88:	54656761 	strbtpl	r6, [r5], #-1889	; 0x761
    ea8c:	656c6261 	strbvs	r6, [ip, #-609]!	; 0x261
    ea90:	3d212031 	stccc	0, cr2, [r1, #-196]!	; 0xffffff3c
    ea94:	00003020 	andeq	r3, r0, r0, lsr #32
    ea98:	4d676154 	stfmie	f6, [r7, #-336]!	; 0xfffffeb0
    ea9c:	726f6d65 	rsbvc	r6, pc, #6464	; 0x1940
    eaa0:	426e2e79 	rsbmi	r2, lr, #1936	; 0x790
    eaa4:	41657361 	cmnmi	r5, r1, ror #6
    eaa8:	65726464 	ldrbvs	r6, [r2, #-1124]!	; 0x464
    eaac:	3d207373 	stccc	3, cr7, [r0, #-460]!	; 0xfffffe34
    eab0:	0030203d 	eorseq	r2, r0, sp, lsr r0
    eab4:	436e5f73 	cmnmi	lr, #460	; 0x1cc
    eab8:	69746972 	ldmdbvs	r4!, {r1, r4, r5, r6, r8, fp, sp, lr}^
    eabc:	4c6c6163 	stfmie	f6, [ip], #-396	; 0xfffffe74
    eac0:	6c657665 	stclvs	6, cr7, [r5], #-404	; 0xfffffe6c
    eac4:	30203e20 	eorcc	r3, r0, r0, lsr #28
    eac8:	00000000 	andeq	r0, r0, r0
    eacc:	636e7973 	cmnvs	lr, #1884160	; 0x1cc000
    ead0:	6e6f7268 	cdpvs	2, 6, cr7, cr15, cr8, {3}
    ead4:	2e657a69 	vnmulcs.f32	s15, s10, s19
    ead8:	00707063 	rsbseq	r7, r0, r3, rrx

0000eadc <_ZN6CTimer14s_nDaysOfMonthE>:
    eadc:	0000001f 	andeq	r0, r0, pc, lsl r0
    eae0:	0000001c 	andeq	r0, r0, ip, lsl r0
    eae4:	0000001f 	andeq	r0, r0, pc, lsl r0
    eae8:	0000001e 	andeq	r0, r0, lr, lsl r0
    eaec:	0000001f 	andeq	r0, r0, pc, lsl r0
    eaf0:	0000001e 	andeq	r0, r0, lr, lsl r0
    eaf4:	0000001f 	andeq	r0, r0, pc, lsl r0
    eaf8:	0000001f 	andeq	r0, r0, pc, lsl r0
    eafc:	0000001e 	andeq	r0, r0, lr, lsl r0
    eb00:	0000001f 	andeq	r0, r0, pc, lsl r0
    eb04:	0000001e 	andeq	r0, r0, lr, lsl r0
    eb08:	0000001f 	andeq	r0, r0, pc, lsl r0
    eb0c:	54705f73 	ldrbtpl	r5, [r0], #-3955	; 0xf73
    eb10:	20736968 	rsbscs	r6, r3, r8, ror #18
    eb14:	30203d3d 	eorcc	r3, r0, sp, lsr sp
    eb18:	00000000 	andeq	r0, r0, r0
    eb1c:	656d6974 	strbvs	r6, [sp, #-2420]!	; 0x974
    eb20:	70632e72 	rsbvc	r2, r3, r2, ror lr
    eb24:	00000070 	andeq	r0, r0, r0, ror r0
    eb28:	3d3c2031 	ldccc	0, cr2, [ip, #-196]!	; 0xffffff3c
    eb2c:	69546820 	ldmdbvs	r4, {r5, fp, sp, lr}^
    eb30:	2072656d 	rsbscs	r6, r2, sp, ror #10
    eb34:	68202626 	stmdavs	r0!, {r1, r2, r5, r9, sl, sp}
    eb38:	656d6954 	strbvs	r6, [sp, #-2388]!	; 0x954
    eb3c:	3d3c2072 	ldccc	0, cr2, [ip, #-456]!	; 0xfffffe38
    eb40:	52454b20 	subpl	r4, r5, #32, 22	; 0x8000
    eb44:	5f4c454e 	svcpl	0x004c454e
    eb48:	454d4954 	strbmi	r4, [sp, #-2388]	; 0x954
    eb4c:	00005352 	andeq	r5, r0, r2, asr r3
    eb50:	64616572 	strbtvs	r6, [r1], #-1394	; 0x572
    eb54:	28203233 	stmdacs	r0!, {r0, r1, r4, r5, r9, ip, sp}
    eb58:	5f4d5241 	svcpl	0x004d5241
    eb5c:	54535953 	ldrbpl	r5, [r3], #-2387	; 0x953
    eb60:	52454d49 	subpl	r4, r5, #4672	; 0x1240
    eb64:	2953435f 	ldmdbcs	r3, {r0, r1, r2, r3, r4, r6, r8, r9, lr}^
    eb68:	28202620 	stmdacs	r0!, {r5, r9, sl, sp}
    eb6c:	3c3c2031 	ldccc	0, cr2, [ip], #-196	; 0xffffff3c
    eb70:	00293320 	eoreq	r3, r9, r0, lsr #6
    eb74:	69685470 	stmdbvs	r8!, {r4, r5, r6, sl, ip, lr}^
    eb78:	3d212073 	stccc	0, cr2, [r1, #-460]!	; 0xfffffe34
    eb7c:	00003020 	andeq	r3, r0, r0, lsr #32
    eb80:	656d6974 	strbvs	r6, [sp, #-2420]!	; 0x974
    eb84:	00000072 	andeq	r0, r0, r2, ror r0
    eb88:	65657053 	strbvs	r7, [r5, #-83]!	; 0x53
    eb8c:	63614664 	cmnvs	r1, #100, 12	; 0x6400000
    eb90:	20726f74 	rsbscs	r6, r2, r4, ror pc
    eb94:	25207369 	strcs	r7, [r0, #-873]!	; 0x369
    eb98:	30252e75 	eorcc	r2, r5, r5, ror lr
    eb9c:	00007532 	andeq	r7, r0, r2, lsr r5
    eba0:	49705f6d 	ldmdbmi	r0!, {r0, r2, r3, r5, r6, r8, r9, sl, fp, ip, lr}^
    eba4:	7265746e 	rsbvc	r7, r5, #1845493760	; 0x6e000000
    eba8:	74707572 	ldrbtvc	r7, [r0], #-1394	; 0x572
    ebac:	74737953 	ldrbtvc	r7, [r3], #-2387	; 0x953
    ebb0:	21206d65 	teqcs	r0, r5, ror #26
    ebb4:	0030203d 	eorseq	r2, r0, sp, lsr r0
    ebb8:	72745370 	rsbsvc	r5, r4, #112, 6	; 0xc0000001
    ebbc:	20676e69 	rsbcs	r6, r7, r9, ror #28
    ebc0:	30203d21 	eorcc	r3, r0, r1, lsr #26
    ebc4:	00000000 	andeq	r0, r0, r0
    ebc8:	25207325 	strcs	r7, [r0, #-805]!	; 0x325
    ebcc:	25207532 	strcs	r7, [r0, #-1330]!	; 0x532
    ebd0:	3a753230 	bcc	1d5b498 <_end+0x1d4b368>
    ebd4:	75323025 	ldrvc	r3, [r2, #-37]!	; 0x25
    ebd8:	3230253a 	eorscc	r2, r0, #243269632	; 0xe800000
    ebdc:	30252e75 	eorcc	r2, r5, r5, ror lr
    ebe0:	00007532 	andeq	r7, r0, r2, lsr r5
    ebe4:	75323025 	ldrvc	r3, [r2, #-37]!	; 0x25
    ebe8:	3230253a 	eorscc	r2, r0, #243269632	; 0xe800000
    ebec:	30253a75 	eorcc	r3, r5, r5, ror sl
    ebf0:	252e7532 	strcs	r7, [lr, #-1330]!	; 0x532
    ebf4:	00753230 	rsbseq	r3, r5, r0, lsr r2
    ebf8:	54705f73 	ldrbtpl	r5, [r0], #-3955	; 0xf73
    ebfc:	20736968 	rsbscs	r6, r3, r8, ror #18
    ec00:	30203d21 	eorcc	r3, r0, r1, lsr #26
    ec04:	00000000 	andeq	r0, r0, r0
    ec08:	006e614a 	rsbeq	r6, lr, sl, asr #2
    ec0c:	00626546 	rsbeq	r6, r2, r6, asr #10
    ec10:	0072614d 	rsbseq	r6, r2, sp, asr #2
    ec14:	00727041 	rsbseq	r7, r2, r1, asr #32
    ec18:	0079614d 	rsbseq	r6, r9, sp, asr #2
    ec1c:	006e754a 	rsbeq	r7, lr, sl, asr #10
    ec20:	006c754a 	rsbeq	r7, ip, sl, asr #10
    ec24:	00677541 	rsbeq	r7, r7, r1, asr #10
    ec28:	00706553 	rsbseq	r6, r0, r3, asr r5
    ec2c:	0074634f 	rsbseq	r6, r4, pc, asr #6
    ec30:	00766f4e 	rsbseq	r6, r6, lr, asr #30
    ec34:	00636544 	rsbeq	r6, r3, r4, asr #10
    ec38:	31797474 	cmncc	r9, r4, ror r4
    ec3c:	00000000 	andeq	r0, r0, r0
    ec40:	74646977 	strbtvc	r6, [r4], #-2423	; 0x977
    ec44:	00000068 	andeq	r0, r0, r8, rrx
    ec48:	67696568 	strbvs	r6, [r9, -r8, ror #10]!
    ec4c:	00007468 	andeq	r7, r0, r8, ror #8
    ec50:	64676f6c 	strbtvs	r6, [r7], #-3948	; 0xf6c
    ec54:	00007665 	andeq	r7, r0, r5, ror #12
    ec58:	6c676f6c 	stclvs	15, cr6, [r7], #-432	; 0xfffffe50
    ec5c:	6c657665 	stclvs	6, cr7, [r5], #-404	; 0xfffffe6c
    ec60:	00000000 	andeq	r0, r0, r0
    ec64:	70627375 	rsbvc	r7, r2, r5, ror r3
    ec68:	7265776f 	rsbvc	r7, r5, #29097984	; 0x1bc0000
    ec6c:	616c6564 	cmnvs	ip, r4, ror #10
    ec70:	00000079 	andeq	r0, r0, r9, ror r0
    ec74:	54705f6d 	ldrbtpl	r5, [r0], #-3949	; 0xf6d
    ec78:	656c6261 	strbvs	r6, [ip, #-609]!	; 0x261
    ec7c:	203d2120 	eorscs	r2, sp, r0, lsr #2
    ec80:	00000030 	andeq	r0, r0, r0, lsr r0
    ec84:	65676170 	strbvs	r6, [r7, #-368]!	; 0x170
    ec88:	6c626174 	stfvse	f6, [r2], #-464	; 0xfffffe30
    ec8c:	70632e65 	rsbvc	r2, r3, r5, ror #28
    ec90:	00000070 	andeq	r0, r0, r0, ror r0
    ec94:	33752828 	cmncc	r5, #40, 16	; 0x280000
    ec98:	6d202932 	stcvs	9, cr2, [r0, #-200]!	; 0xffffff38
    ec9c:	6154705f 	cmpvs	r4, pc, asr r0
    eca0:	20656c62 	rsbcs	r6, r5, r2, ror #24
    eca4:	78302026 	ldmdavc	r0!, {r1, r2, r5, sp}
    eca8:	29464646 	stmdbcs	r6, {r1, r2, r6, r9, sl, lr}^
    ecac:	203d3d20 	eorscs	r3, sp, r0, lsr #26
    ecb0:	00000030 	andeq	r0, r0, r0, lsr r0
    ecb4:	00000000 	andeq	r0, r0, r0

0000ecb8 <_ZTV13CScreenDevice>:
	...
    ecc0:	0000abf8 	strdeq	sl, [r0], -r8
    ecc4:	0000ac6c 	andeq	sl, r0, ip, ror #24
    ecc8:	0000e690 	muleq	r0, r0, r6
    eccc:	0000bab8 			; <UNDEFINED> instruction: 0x0000bab8
    ecd0:	0000e6a0 	andeq	lr, r0, r0, lsr #13

0000ecd4 <_ZZN13CScreenDevice5RotorEjjE7chChars>:
    ecd4:	2f7c5c2d 	svccs	0x007c5c2d
	...
    ece0:	25287325 	strcs	r7, [r8, #-805]!	; 0x325
    ece4:	00002975 	andeq	r2, r0, r5, ror r9
    ece8:	65737361 	ldrbvs	r7, [r3, #-865]!	; 0x361
    ecec:	6f697472 	svcvs	0x00697472
    ecf0:	6166206e 	cmnvs	r6, lr, rrx
    ecf4:	64656c69 	strbtvs	r6, [r5], #-3177	; 0xc69
    ecf8:	7325203a 	teqvc	r5, #58	; 0x3a
    ecfc:	00000000 	andeq	r0, r0, r0

0000ed00 <_ZL9font_data>:
    ed00:	3c180000 	ldccc	0, cr0, [r8], {-0}
    ed04:	18183c3c 	ldmdane	r8, {r2, r3, r4, r5, sl, fp, ip, sp}
    ed08:	18180018 	ldmdane	r8, {r3, r4}
    ed0c:	00000000 	andeq	r0, r0, r0
    ed10:	66666600 	strbtvs	r6, [r6], -r0, lsl #12
    ed14:	00000024 	andeq	r0, r0, r4, lsr #32
	...
    ed20:	6c000000 	stcvs	0, cr0, [r0], {-0}
    ed24:	6c6cfe6c 	stclvs	14, cr15, [ip], #-432	; 0xfffffe50
    ed28:	6c6cfe6c 	stclvs	14, cr15, [ip], #-432	; 0xfffffe50
    ed2c:	00000000 	andeq	r0, r0, r0
    ed30:	7c101000 	ldcvc	0, cr1, [r0], {-0}
    ed34:	7cd0d0d6 	ldclvc	0, cr13, [r0], {214}	; 0xd6
    ed38:	7cd61616 	ldclvc	6, cr1, [r6], {22}
    ed3c:	00001010 	andeq	r1, r0, r0, lsl r0
    ed40:	00000000 	andeq	r0, r0, r0
    ed44:	180cc6c2 	stmdane	ip, {r1, r6, r7, r9, sl, lr, pc}
    ed48:	86c66030 			; <UNDEFINED> instruction: 0x86c66030
    ed4c:	00000000 	andeq	r0, r0, r0
    ed50:	6c380000 	ldcvs	0, cr0, [r8], #-0
    ed54:	dc76386c 	ldclle	8, cr3, [r6], #-432	; 0xfffffe50
    ed58:	76cccccc 	strbvc	ip, [ip], ip, asr #25
    ed5c:	00000000 	andeq	r0, r0, r0
    ed60:	18181800 	ldmdane	r8, {fp, ip}
    ed64:	00000030 	andeq	r0, r0, r0, lsr r0
	...
    ed70:	180c0000 	stmdane	ip, {}	; <UNPREDICTABLE>
    ed74:	30303030 	eorscc	r3, r0, r0, lsr r0
    ed78:	0c183030 	ldceq	0, cr3, [r8], {48}	; 0x30
    ed7c:	00000000 	andeq	r0, r0, r0
    ed80:	18300000 	ldmdane	r0!, {}	; <UNPREDICTABLE>
    ed84:	0c0c0c0c 	stceq	12, cr0, [ip], {12}
    ed88:	30180c0c 	andscc	r0, r8, ip, lsl #24
	...
    ed94:	ff3c6600 			; <UNDEFINED> instruction: 0xff3c6600
    ed98:	0000663c 	andeq	r6, r0, ip, lsr r6
	...
    eda4:	7e181800 	cdpvc	8, 1, cr1, cr8, cr0, {0}
    eda8:	00001818 	andeq	r1, r0, r8, lsl r8
	...
    edb8:	18181800 	ldmdane	r8, {fp, ip}
    edbc:	00000030 	andeq	r0, r0, r0, lsr r0
    edc0:	00000000 	andeq	r0, r0, r0
    edc4:	fe000000 	cdp2	0, 0, cr0, cr0, cr0, {0}
	...
    edd8:	18180000 	ldmdane	r8, {}	; <UNPREDICTABLE>
	...
    ede4:	180c0600 	stmdane	ip, {r9, sl}
    ede8:	00c06030 	sbceq	r6, r0, r0, lsr r0
    edec:	00000000 	andeq	r0, r0, r0
    edf0:	c67c0000 	ldrbtgt	r0, [ip], -r0
    edf4:	d6d6cece 	ldrble	ip, [r6], lr, asr #29
    edf8:	7cc6e6e6 	stclvc	6, cr14, [r6], {230}	; 0xe6
    edfc:	00000000 	andeq	r0, r0, r0
    ee00:	38180000 	ldmdacc	r8, {}	; <UNPREDICTABLE>
    ee04:	18181878 	ldmdane	r8, {r3, r4, r5, r6, fp, ip}
    ee08:	7e181818 	mrcvc	8, 0, r1, cr8, cr8, {0}
    ee0c:	00000000 	andeq	r0, r0, r0
    ee10:	c67c0000 	ldrbtgt	r0, [ip], -r0
    ee14:	30180c06 	andscc	r0, r8, r6, lsl #24
    ee18:	fec6c060 	cdp2	0, 12, cr12, cr6, cr0, {3}
    ee1c:	00000000 	andeq	r0, r0, r0
    ee20:	c67c0000 	ldrbtgt	r0, [ip], -r0
    ee24:	063c0606 	ldrteq	r0, [ip], -r6, lsl #12
    ee28:	7cc60606 	stclvc	6, cr0, [r6], {6}
    ee2c:	00000000 	andeq	r0, r0, r0
    ee30:	1c0c0000 	stcne	0, cr0, [ip], {-0}
    ee34:	fecc6c3c 	mcr2	12, 6, r6, cr12, cr12, {1}
    ee38:	1e0c0c0c 	cdpne	12, 0, cr0, cr12, cr12, {0}
    ee3c:	00000000 	andeq	r0, r0, r0
    ee40:	c0fe0000 	rscsgt	r0, lr, r0
    ee44:	06fcc0c0 	ldrbteq	ip, [ip], r0, asr #1
    ee48:	7cc60606 	stclvc	6, cr0, [r6], {6}
    ee4c:	00000000 	andeq	r0, r0, r0
    ee50:	60380000 	eorsvs	r0, r8, r0
    ee54:	c6fcc0c0 	ldrbtgt	ip, [ip], r0, asr #1
    ee58:	7cc6c6c6 	stclvc	6, cr12, [r6], {198}	; 0xc6
    ee5c:	00000000 	andeq	r0, r0, r0
    ee60:	c6fe0000 	ldrbtgt	r0, [lr], r0
    ee64:	180c0606 	stmdane	ip, {r1, r2, r9, sl}
    ee68:	30303030 	eorscc	r3, r0, r0, lsr r0
    ee6c:	00000000 	andeq	r0, r0, r0
    ee70:	c67c0000 	ldrbtgt	r0, [ip], -r0
    ee74:	c67cc6c6 	ldrbtgt	ip, [ip], -r6, asr #13
    ee78:	7cc6c6c6 	stclvc	6, cr12, [r6], {198}	; 0xc6
    ee7c:	00000000 	andeq	r0, r0, r0
    ee80:	c67c0000 	ldrbtgt	r0, [ip], -r0
    ee84:	067ec6c6 	ldrbteq	ip, [lr], -r6, asr #13
    ee88:	780c0606 	stmdavc	ip, {r1, r2, r9, sl}
	...
    ee94:	00001818 	andeq	r1, r0, r8, lsl r8
    ee98:	00181800 	andseq	r1, r8, r0, lsl #16
	...
    eea4:	00001818 	andeq	r1, r0, r8, lsl r8
    eea8:	30181800 	andscc	r1, r8, r0, lsl #16
    eeac:	00000000 	andeq	r0, r0, r0
    eeb0:	06000000 	streq	r0, [r0], -r0
    eeb4:	6030180c 	eorsvs	r1, r0, ip, lsl #16
    eeb8:	060c1830 			; <UNDEFINED> instruction: 0x060c1830
	...
    eec4:	0000fe00 	andeq	pc, r0, r0, lsl #28
    eec8:	000000fe 	strdeq	r0, [r0], -lr
    eecc:	00000000 	andeq	r0, r0, r0
    eed0:	60000000 	andvs	r0, r0, r0
    eed4:	060c1830 			; <UNDEFINED> instruction: 0x060c1830
    eed8:	6030180c 	eorsvs	r1, r0, ip, lsl #16
    eedc:	00000000 	andeq	r0, r0, r0
    eee0:	c67c0000 	ldrbtgt	r0, [ip], -r0
    eee4:	18180cc6 	ldmdane	r8, {r1, r2, r6, r7, sl, fp}
    eee8:	18180018 	ldmdane	r8, {r3, r4}
    eeec:	00000000 	andeq	r0, r0, r0
    eef0:	c67c0000 	ldrbtgt	r0, [ip], -r0
    eef4:	dedec6c6 	cdple	6, 13, cr12, cr14, cr6, {6}
    eef8:	7cc0dcde 	stclvc	12, cr13, [r0], {222}	; 0xde
    eefc:	00000000 	andeq	r0, r0, r0
    ef00:	38100000 	ldmdacc	r0, {}	; <UNPREDICTABLE>
    ef04:	fec6c66c 	cdp2	6, 12, cr12, cr6, cr12, {3}
    ef08:	c6c6c6c6 	strbgt	ip, [r6], r6, asr #13
    ef0c:	00000000 	andeq	r0, r0, r0
    ef10:	66fc0000 	ldrbtvs	r0, [ip], r0
    ef14:	667c6666 	ldrbtvs	r6, [ip], -r6, ror #12
    ef18:	fc666666 	stc2l	6, cr6, [r6], #-408	; 0xfffffe68
    ef1c:	00000000 	andeq	r0, r0, r0
    ef20:	663c0000 	ldrtvs	r0, [ip], -r0
    ef24:	c0c0c0c2 	sbcgt	ip, r0, r2, asr #1
    ef28:	3c66c2c0 	sfmcc	f4, 3, [r6], #-768	; 0xfffffd00
    ef2c:	00000000 	andeq	r0, r0, r0
    ef30:	6cf80000 	ldclvs	0, cr0, [r8]
    ef34:	66666666 	strbtvs	r6, [r6], -r6, ror #12
    ef38:	f86c6666 			; <UNDEFINED> instruction: 0xf86c6666
    ef3c:	00000000 	andeq	r0, r0, r0
    ef40:	66fe0000 	ldrbtvs	r0, [lr], r0
    ef44:	68786862 	ldmdavs	r8!, {r1, r5, r6, fp, sp, lr}^
    ef48:	fe666260 	cdp2	2, 6, cr6, cr6, cr0, {3}
    ef4c:	00000000 	andeq	r0, r0, r0
    ef50:	66fe0000 	ldrbtvs	r0, [lr], r0
    ef54:	68786862 	ldmdavs	r8!, {r1, r5, r6, fp, sp, lr}^
    ef58:	f0606060 			; <UNDEFINED> instruction: 0xf0606060
    ef5c:	00000000 	andeq	r0, r0, r0
    ef60:	663c0000 	ldrtvs	r0, [ip], -r0
    ef64:	dec0c0c2 	cdple	0, 12, cr12, cr0, cr2, {6}
    ef68:	3a66c6c6 	bcc	19c0a88 <_end+0x19b0958>
    ef6c:	00000000 	andeq	r0, r0, r0
    ef70:	c6c60000 	strbgt	r0, [r6], r0
    ef74:	c6fec6c6 	ldrbtgt	ip, [lr], r6, asr #13
    ef78:	c6c6c6c6 	strbgt	ip, [r6], r6, asr #13
    ef7c:	00000000 	andeq	r0, r0, r0
    ef80:	183c0000 	ldmdane	ip!, {}	; <UNPREDICTABLE>
    ef84:	18181818 	ldmdane	r8, {r3, r4, fp, ip}
    ef88:	3c181818 	ldccc	8, cr1, [r8], {24}
    ef8c:	00000000 	andeq	r0, r0, r0
    ef90:	0c1e0000 	ldceq	0, cr0, [lr], {-0}
    ef94:	0c0c0c0c 	stceq	12, cr0, [ip], {12}
    ef98:	78cccccc 	stmiavc	ip, {r2, r3, r6, r7, sl, fp, lr, pc}^
    ef9c:	00000000 	andeq	r0, r0, r0
    efa0:	66e60000 	strbtvs	r0, [r6], r0
    efa4:	78786c66 	ldmdavc	r8!, {r1, r2, r5, r6, sl, fp, sp, lr}^
    efa8:	e666666c 	strbt	r6, [r6], -ip, ror #12
    efac:	00000000 	andeq	r0, r0, r0
    efb0:	60f00000 	rscsvs	r0, r0, r0
    efb4:	60606060 	rsbvs	r6, r0, r0, rrx
    efb8:	fe666260 	cdp2	2, 6, cr6, cr6, cr0, {3}
    efbc:	00000000 	andeq	r0, r0, r0
    efc0:	eec60000 	cdp	0, 12, cr0, cr6, cr0, {0}
    efc4:	c6d6fefe 			; <UNDEFINED> instruction: 0xc6d6fefe
    efc8:	c6c6c6c6 	strbgt	ip, [r6], r6, asr #13
    efcc:	00000000 	andeq	r0, r0, r0
    efd0:	e6c60000 	strb	r0, [r6], r0
    efd4:	cedefef6 	mrcgt	14, 6, APSR_nzcv, cr14, cr6, {7}
    efd8:	c6c6c6c6 	strbgt	ip, [r6], r6, asr #13
    efdc:	00000000 	andeq	r0, r0, r0
    efe0:	c67c0000 	ldrbtgt	r0, [ip], -r0
    efe4:	c6c6c6c6 	strbgt	ip, [r6], r6, asr #13
    efe8:	7cc6c6c6 	stclvc	6, cr12, [r6], {198}	; 0xc6
    efec:	00000000 	andeq	r0, r0, r0
    eff0:	66fc0000 	ldrbtvs	r0, [ip], r0
    eff4:	607c6666 	rsbsvs	r6, ip, r6, ror #12
    eff8:	f0606060 			; <UNDEFINED> instruction: 0xf0606060
    effc:	00000000 	andeq	r0, r0, r0
    f000:	c67c0000 	ldrbtgt	r0, [ip], -r0
    f004:	c6c6c6c6 	strbgt	ip, [r6], r6, asr #13
    f008:	7cded6c6 	ldclvc	6, cr13, [lr], {198}	; 0xc6
    f00c:	00000e0c 	andeq	r0, r0, ip, lsl #28
    f010:	66fc0000 	ldrbtvs	r0, [ip], r0
    f014:	6c7c6666 	ldclvs	6, cr6, [ip], #-408	; 0xfffffe68
    f018:	e6666666 	strbt	r6, [r6], -r6, ror #12
    f01c:	00000000 	andeq	r0, r0, r0
    f020:	c67c0000 	ldrbtgt	r0, [ip], -r0
    f024:	0c3864c6 	cfldrseq	mvf6, [r8], #-792	; 0xfffffce8
    f028:	7cc6c606 	stclvc	6, cr12, [r6], {6}
    f02c:	00000000 	andeq	r0, r0, r0
    f030:	7e7e0000 	cdpvc	0, 7, cr0, cr14, cr0, {0}
    f034:	1818185a 	ldmdane	r8, {r1, r3, r4, r6, fp, ip}
    f038:	3c181818 	ldccc	8, cr1, [r8], {24}
    f03c:	00000000 	andeq	r0, r0, r0
    f040:	c6c60000 	strbgt	r0, [r6], r0
    f044:	c6c6c6c6 	strbgt	ip, [r6], r6, asr #13
    f048:	7cc6c6c6 	stclvc	6, cr12, [r6], {198}	; 0xc6
    f04c:	00000000 	andeq	r0, r0, r0
    f050:	c6c60000 	strbgt	r0, [r6], r0
    f054:	c6c6c6c6 	strbgt	ip, [r6], r6, asr #13
    f058:	10386cc6 	eorsne	r6, r8, r6, asr #25
    f05c:	00000000 	andeq	r0, r0, r0
    f060:	c6c60000 	strbgt	r0, [r6], r0
    f064:	d6d6c6c6 	ldrble	ip, [r6], r6, asr #13
    f068:	6ceefed6 	stclvs	14, cr15, [lr], #856	; 0x358
    f06c:	00000000 	andeq	r0, r0, r0
    f070:	c6c60000 	strbgt	r0, [r6], r0
    f074:	38387c6c 	ldmdacc	r8!, {r2, r3, r5, r6, sl, fp, ip, sp, lr}
    f078:	c6c66c7c 	uxtab16gt	r6, r6, ip, ROR #24
    f07c:	00000000 	andeq	r0, r0, r0
    f080:	66660000 	strbtvs	r0, [r6], -r0
    f084:	183c6666 	ldmdane	ip!, {r1, r2, r5, r6, r9, sl, sp, lr}
    f088:	3c181818 	ldccc	8, cr1, [r8], {24}
    f08c:	00000000 	andeq	r0, r0, r0
    f090:	c6fe0000 	ldrbtgt	r0, [lr], r0
    f094:	30180c86 	andscc	r0, r8, r6, lsl #25
    f098:	fec6c260 	cdp2	2, 12, cr12, cr6, cr0, {3}
    f09c:	00000000 	andeq	r0, r0, r0
    f0a0:	303c0000 	eorscc	r0, ip, r0
    f0a4:	30303030 	eorscc	r3, r0, r0, lsr r0
    f0a8:	3c303030 	ldccc	0, cr3, [r0], #-192	; 0xffffff40
	...
    f0b4:	3060c000 	rsbcc	ip, r0, r0
    f0b8:	00060c18 	andeq	r0, r6, r8, lsl ip
    f0bc:	00000000 	andeq	r0, r0, r0
    f0c0:	0c3c0000 	ldceq	0, cr0, [ip], #-0
    f0c4:	0c0c0c0c 	stceq	12, cr0, [ip], {12}
    f0c8:	3c0c0c0c 	stccc	12, cr0, [ip], {12}
    f0cc:	00000000 	andeq	r0, r0, r0
    f0d0:	c66c3810 			; <UNDEFINED> instruction: 0xc66c3810
	...
    f0ec:	00ff0000 	rscseq	r0, pc, r0
    f0f0:	30303000 	eorscc	r3, r0, r0
    f0f4:	00000018 	andeq	r0, r0, r8, lsl r0
	...
    f104:	7c0c7800 	stcvc	8, cr7, [ip], {-0}
    f108:	76cccccc 	strbvc	ip, [ip], ip, asr #25
    f10c:	00000000 	andeq	r0, r0, r0
    f110:	60e00000 	rscvs	r0, r0, r0
    f114:	666c7860 	strbtvs	r7, [ip], -r0, ror #16
    f118:	7c666666 	stclvc	6, cr6, [r6], #-408	; 0xfffffe68
	...
    f124:	c0c67c00 	sbcgt	r7, r6, r0, lsl #24
    f128:	7cc6c0c0 	stclvc	0, cr12, [r6], {192}	; 0xc0
    f12c:	00000000 	andeq	r0, r0, r0
    f130:	0c1c0000 	ldceq	0, cr0, [ip], {-0}
    f134:	cc6c3c0c 	stclgt	12, cr3, [ip], #-48	; 0xffffffd0
    f138:	76cccccc 	strbvc	ip, [ip], ip, asr #25
	...
    f144:	fec67c00 	cdp2	12, 12, cr7, cr6, cr0, {0}
    f148:	7cc6c0c0 	stclvc	0, cr12, [r6], {192}	; 0xc0
    f14c:	00000000 	andeq	r0, r0, r0
    f150:	6c380000 	ldcvs	0, cr0, [r8], #-0
    f154:	60f06064 	rscsvs	r6, r0, r4, rrx
    f158:	f0606060 			; <UNDEFINED> instruction: 0xf0606060
	...
    f164:	cccc7600 	stclgt	6, cr7, [ip], {0}
    f168:	7ccccccc 	stclvc	12, cr12, [ip], {204}	; 0xcc
    f16c:	0078cc0c 	rsbseq	ip, r8, ip, lsl #24
    f170:	60e00000 	rscvs	r0, r0, r0
    f174:	66766c60 	ldrbtvs	r6, [r6], -r0, ror #24
    f178:	e6666666 	strbt	r6, [r6], -r6, ror #12
    f17c:	00000000 	andeq	r0, r0, r0
    f180:	18180000 	ldmdane	r8, {}	; <UNPREDICTABLE>
    f184:	18183800 	ldmdane	r8, {fp, ip, sp}
    f188:	3c181818 	ldccc	8, cr1, [r8], {24}
    f18c:	00000000 	andeq	r0, r0, r0
    f190:	06060000 	streq	r0, [r6], -r0
    f194:	06060e00 	streq	r0, [r6], -r0, lsl #28
    f198:	06060606 	streq	r0, [r6], -r6, lsl #12
    f19c:	003c6666 	eorseq	r6, ip, r6, ror #12
    f1a0:	60e00000 	rscvs	r0, r0, r0
    f1a4:	786c6660 	stmdavc	ip!, {r5, r6, r9, sl, sp, lr}^
    f1a8:	e6666c78 			; <UNDEFINED> instruction: 0xe6666c78
    f1ac:	00000000 	andeq	r0, r0, r0
    f1b0:	18380000 	ldmdane	r8!, {}	; <UNPREDICTABLE>
    f1b4:	18181818 	ldmdane	r8, {r3, r4, fp, ip}
    f1b8:	3c181818 	ldccc	8, cr1, [r8], {24}
	...
    f1c4:	d6feec00 	ldrbtle	lr, [lr], r0, lsl #24
    f1c8:	c6d6d6d6 			; <UNDEFINED> instruction: 0xc6d6d6d6
	...
    f1d4:	6666dc00 	strbtvs	sp, [r6], -r0, lsl #24
    f1d8:	66666666 	strbtvs	r6, [r6], -r6, ror #12
	...
    f1e4:	c6c67c00 	strbgt	r7, [r6], r0, lsl #24
    f1e8:	7cc6c6c6 	stclvc	6, cr12, [r6], {198}	; 0xc6
	...
    f1f4:	6666dc00 	strbtvs	sp, [r6], -r0, lsl #24
    f1f8:	7c666666 	stclvc	6, cr6, [r6], #-408	; 0xfffffe68
    f1fc:	00f06060 	rscseq	r6, r0, r0, rrx
    f200:	00000000 	andeq	r0, r0, r0
    f204:	cccc7600 	stclgt	6, cr7, [ip], {0}
    f208:	7ccccccc 	stclvc	12, cr12, [ip], {204}	; 0xcc
    f20c:	001e0c0c 	andseq	r0, lr, ip, lsl #24
    f210:	00000000 	andeq	r0, r0, r0
    f214:	6676dc00 	ldrbtvs	sp, [r6], -r0, lsl #24
    f218:	f0606060 			; <UNDEFINED> instruction: 0xf0606060
	...
    f224:	60c67c00 	sbcvs	r7, r6, r0, lsl #24
    f228:	7cc60c38 	stclvc	12, cr0, [r6], {56}	; 0x38
    f22c:	00000000 	andeq	r0, r0, r0
    f230:	30100000 	andscc	r0, r0, r0
    f234:	3030fc30 	eorscc	pc, r0, r0, lsr ip	; <UNPREDICTABLE>
    f238:	1c363030 	ldcne	0, cr3, [r6], #-192	; 0xffffff40
	...
    f244:	cccccc00 	stclgt	12, cr12, [ip], {0}
    f248:	76cccccc 	strbvc	ip, [ip], ip, asr #25
	...
    f254:	66666600 	strbtvs	r6, [r6], -r0, lsl #12
    f258:	183c6666 	ldmdane	ip!, {r1, r2, r5, r6, r9, sl, sp, lr}
	...
    f264:	d6c6c600 	strble	ip, [r6], r0, lsl #12
    f268:	6cfed6d6 	ldclvs	6, cr13, [lr], #856	; 0x358
	...
    f274:	386cc600 	stmdacc	ip!, {r9, sl, lr, pc}^
    f278:	c66c3838 			; <UNDEFINED> instruction: 0xc66c3838
	...
    f284:	c6c6c600 	strbgt	ip, [r6], r0, lsl #12
    f288:	7ec6c6c6 	cdpvc	6, 12, cr12, cr6, cr6, {6}
    f28c:	00f80c06 	rscseq	r0, r8, r6, lsl #24
    f290:	00000000 	andeq	r0, r0, r0
    f294:	18ccfe00 	stmiane	ip, {r9, sl, fp, ip, sp, lr, pc}^
    f298:	fec66030 	mcr2	0, 6, r6, cr6, cr0, {1}
    f29c:	00000000 	andeq	r0, r0, r0
    f2a0:	180e0000 	stmdane	lr, {}	; <UNPREDICTABLE>
    f2a4:	18701818 	ldmdane	r0!, {r3, r4, fp, ip}^
    f2a8:	0e181818 	mrceq	8, 0, r1, cr8, cr8, {0}
    f2ac:	00000000 	andeq	r0, r0, r0
    f2b0:	18180000 	ldmdane	r8, {}	; <UNPREDICTABLE>
    f2b4:	18181818 	ldmdane	r8, {r3, r4, fp, ip}
    f2b8:	18181818 	ldmdane	r8, {r3, r4, fp, ip}
    f2bc:	00000000 	andeq	r0, r0, r0
    f2c0:	18700000 	ldmdane	r0!, {}^	; <UNPREDICTABLE>
    f2c4:	180e1818 	stmdane	lr, {r3, r4, fp, ip}
    f2c8:	70181818 	andsvc	r1, r8, r8, lsl r8
    f2cc:	00000000 	andeq	r0, r0, r0
    f2d0:	dc760000 	ldclle	0, cr0, [r6], #-0
	...
    f2e0:	c37e0000 	cmngt	lr, #0
    f2e4:	e7f39999 			; <UNDEFINED> instruction: 0xe7f39999
    f2e8:	e7e7ffe7 	strb	pc, [r7, r7, ror #31]!	; <UNPREDICTABLE>
    f2ec:	0000007e 	andeq	r0, r0, lr, ror r0
    f2f0:	c37e0000 	cmngt	lr, #0
    f2f4:	e7f39999 			; <UNDEFINED> instruction: 0xe7f39999
    f2f8:	e7e7ffe7 	strb	pc, [r7, r7, ror #31]!	; <UNPREDICTABLE>
    f2fc:	0000007e 	andeq	r0, r0, lr, ror r0
    f300:	c37e0000 	cmngt	lr, #0
    f304:	e7f39999 			; <UNDEFINED> instruction: 0xe7f39999
    f308:	e7e7ffe7 	strb	pc, [r7, r7, ror #31]!	; <UNPREDICTABLE>
    f30c:	0000007e 	andeq	r0, r0, lr, ror r0
    f310:	c37e0000 	cmngt	lr, #0
    f314:	e7f39999 			; <UNDEFINED> instruction: 0xe7f39999
    f318:	e7e7ffe7 	strb	pc, [r7, r7, ror #31]!	; <UNPREDICTABLE>
    f31c:	0000007e 	andeq	r0, r0, lr, ror r0
    f320:	c37e0000 	cmngt	lr, #0
    f324:	e7f39999 			; <UNDEFINED> instruction: 0xe7f39999
    f328:	e7e7ffe7 	strb	pc, [r7, r7, ror #31]!	; <UNPREDICTABLE>
    f32c:	0000007e 	andeq	r0, r0, lr, ror r0
    f330:	c37e0000 	cmngt	lr, #0
    f334:	e7f39999 			; <UNDEFINED> instruction: 0xe7f39999
    f338:	e7e7ffe7 	strb	pc, [r7, r7, ror #31]!	; <UNPREDICTABLE>
    f33c:	0000007e 	andeq	r0, r0, lr, ror r0
    f340:	c37e0000 	cmngt	lr, #0
    f344:	e7f39999 			; <UNDEFINED> instruction: 0xe7f39999
    f348:	e7e7ffe7 	strb	pc, [r7, r7, ror #31]!	; <UNPREDICTABLE>
    f34c:	0000007e 	andeq	r0, r0, lr, ror r0
    f350:	c37e0000 	cmngt	lr, #0
    f354:	e7f39999 			; <UNDEFINED> instruction: 0xe7f39999
    f358:	e7e7ffe7 	strb	pc, [r7, r7, ror #31]!	; <UNPREDICTABLE>
    f35c:	0000007e 	andeq	r0, r0, lr, ror r0
    f360:	c37e0000 	cmngt	lr, #0
    f364:	e7f39999 			; <UNDEFINED> instruction: 0xe7f39999
    f368:	e7e7ffe7 	strb	pc, [r7, r7, ror #31]!	; <UNPREDICTABLE>
    f36c:	0000007e 	andeq	r0, r0, lr, ror r0
    f370:	c37e0000 	cmngt	lr, #0
    f374:	e7f39999 			; <UNDEFINED> instruction: 0xe7f39999
    f378:	e7e7ffe7 	strb	pc, [r7, r7, ror #31]!	; <UNPREDICTABLE>
    f37c:	0000007e 	andeq	r0, r0, lr, ror r0
    f380:	c37e0000 	cmngt	lr, #0
    f384:	e7f39999 			; <UNDEFINED> instruction: 0xe7f39999
    f388:	e7e7ffe7 	strb	pc, [r7, r7, ror #31]!	; <UNPREDICTABLE>
    f38c:	0000007e 	andeq	r0, r0, lr, ror r0
    f390:	c37e0000 	cmngt	lr, #0
    f394:	e7f39999 			; <UNDEFINED> instruction: 0xe7f39999
    f398:	e7e7ffe7 	strb	pc, [r7, r7, ror #31]!	; <UNPREDICTABLE>
    f39c:	0000007e 	andeq	r0, r0, lr, ror r0
    f3a0:	c37e0000 	cmngt	lr, #0
    f3a4:	e7f39999 			; <UNDEFINED> instruction: 0xe7f39999
    f3a8:	e7e7ffe7 	strb	pc, [r7, r7, ror #31]!	; <UNPREDICTABLE>
    f3ac:	0000007e 	andeq	r0, r0, lr, ror r0
    f3b0:	c37e0000 	cmngt	lr, #0
    f3b4:	e7f39999 			; <UNDEFINED> instruction: 0xe7f39999
    f3b8:	e7e7ffe7 	strb	pc, [r7, r7, ror #31]!	; <UNPREDICTABLE>
    f3bc:	0000007e 	andeq	r0, r0, lr, ror r0
    f3c0:	c37e0000 	cmngt	lr, #0
    f3c4:	e7f39999 			; <UNDEFINED> instruction: 0xe7f39999
    f3c8:	e7e7ffe7 	strb	pc, [r7, r7, ror #31]!	; <UNPREDICTABLE>
    f3cc:	0000007e 	andeq	r0, r0, lr, ror r0
    f3d0:	c37e0000 	cmngt	lr, #0
    f3d4:	e7f39999 			; <UNDEFINED> instruction: 0xe7f39999
    f3d8:	e7e7ffe7 	strb	pc, [r7, r7, ror #31]!	; <UNPREDICTABLE>
    f3dc:	0000007e 	andeq	r0, r0, lr, ror r0
    f3e0:	c37e0000 	cmngt	lr, #0
    f3e4:	e7f39999 			; <UNDEFINED> instruction: 0xe7f39999
    f3e8:	e7e7ffe7 	strb	pc, [r7, r7, ror #31]!	; <UNPREDICTABLE>
    f3ec:	0000007e 	andeq	r0, r0, lr, ror r0
    f3f0:	c37e0000 	cmngt	lr, #0
    f3f4:	e7f39999 			; <UNDEFINED> instruction: 0xe7f39999
    f3f8:	e7e7ffe7 	strb	pc, [r7, r7, ror #31]!	; <UNPREDICTABLE>
    f3fc:	0000007e 	andeq	r0, r0, lr, ror r0
    f400:	c37e0000 	cmngt	lr, #0
    f404:	e7f39999 			; <UNDEFINED> instruction: 0xe7f39999
    f408:	e7e7ffe7 	strb	pc, [r7, r7, ror #31]!	; <UNPREDICTABLE>
    f40c:	0000007e 	andeq	r0, r0, lr, ror r0
    f410:	c37e0000 	cmngt	lr, #0
    f414:	e7f39999 			; <UNDEFINED> instruction: 0xe7f39999
    f418:	e7e7ffe7 	strb	pc, [r7, r7, ror #31]!	; <UNPREDICTABLE>
    f41c:	0000007e 	andeq	r0, r0, lr, ror r0
    f420:	c37e0000 	cmngt	lr, #0
    f424:	e7f39999 			; <UNDEFINED> instruction: 0xe7f39999
    f428:	e7e7ffe7 	strb	pc, [r7, r7, ror #31]!	; <UNPREDICTABLE>
    f42c:	0000007e 	andeq	r0, r0, lr, ror r0
    f430:	c37e0000 	cmngt	lr, #0
    f434:	e7f39999 			; <UNDEFINED> instruction: 0xe7f39999
    f438:	e7e7ffe7 	strb	pc, [r7, r7, ror #31]!	; <UNPREDICTABLE>
    f43c:	0000007e 	andeq	r0, r0, lr, ror r0
    f440:	c37e0000 	cmngt	lr, #0
    f444:	e7f39999 			; <UNDEFINED> instruction: 0xe7f39999
    f448:	e7e7ffe7 	strb	pc, [r7, r7, ror #31]!	; <UNPREDICTABLE>
    f44c:	0000007e 	andeq	r0, r0, lr, ror r0
    f450:	c37e0000 	cmngt	lr, #0
    f454:	e7f39999 			; <UNDEFINED> instruction: 0xe7f39999
    f458:	e7e7ffe7 	strb	pc, [r7, r7, ror #31]!	; <UNPREDICTABLE>
    f45c:	0000007e 	andeq	r0, r0, lr, ror r0
    f460:	c37e0000 	cmngt	lr, #0
    f464:	e7f39999 			; <UNDEFINED> instruction: 0xe7f39999
    f468:	e7e7ffe7 	strb	pc, [r7, r7, ror #31]!	; <UNPREDICTABLE>
    f46c:	0000007e 	andeq	r0, r0, lr, ror r0
    f470:	c37e0000 	cmngt	lr, #0
    f474:	e7f39999 			; <UNDEFINED> instruction: 0xe7f39999
    f478:	e7e7ffe7 	strb	pc, [r7, r7, ror #31]!	; <UNPREDICTABLE>
    f47c:	0000007e 	andeq	r0, r0, lr, ror r0
    f480:	c37e0000 	cmngt	lr, #0
    f484:	e7f39999 			; <UNDEFINED> instruction: 0xe7f39999
    f488:	e7e7ffe7 	strb	pc, [r7, r7, ror #31]!	; <UNPREDICTABLE>
    f48c:	0000007e 	andeq	r0, r0, lr, ror r0
    f490:	c37e0000 	cmngt	lr, #0
    f494:	e7f39999 			; <UNDEFINED> instruction: 0xe7f39999
    f498:	e7e7ffe7 	strb	pc, [r7, r7, ror #31]!	; <UNPREDICTABLE>
    f49c:	0000007e 	andeq	r0, r0, lr, ror r0
    f4a0:	c37e0000 	cmngt	lr, #0
    f4a4:	e7f39999 			; <UNDEFINED> instruction: 0xe7f39999
    f4a8:	e7e7ffe7 	strb	pc, [r7, r7, ror #31]!	; <UNPREDICTABLE>
    f4ac:	0000007e 	andeq	r0, r0, lr, ror r0
    f4b0:	c37e0000 	cmngt	lr, #0
    f4b4:	e7f39999 			; <UNDEFINED> instruction: 0xe7f39999
    f4b8:	e7e7ffe7 	strb	pc, [r7, r7, ror #31]!	; <UNPREDICTABLE>
    f4bc:	0000007e 	andeq	r0, r0, lr, ror r0
    f4c0:	c37e0000 	cmngt	lr, #0
    f4c4:	e7f39999 			; <UNDEFINED> instruction: 0xe7f39999
    f4c8:	e7e7ffe7 	strb	pc, [r7, r7, ror #31]!	; <UNPREDICTABLE>
    f4cc:	0000007e 	andeq	r0, r0, lr, ror r0
    f4d0:	c37e0000 	cmngt	lr, #0
    f4d4:	e7f39999 			; <UNDEFINED> instruction: 0xe7f39999
    f4d8:	e7e7ffe7 	strb	pc, [r7, r7, ror #31]!	; <UNPREDICTABLE>
    f4dc:	0000007e 	andeq	r0, r0, lr, ror r0
    f4e0:	c37e0000 	cmngt	lr, #0
    f4e4:	e7f39999 			; <UNDEFINED> instruction: 0xe7f39999
    f4e8:	e7e7ffe7 	strb	pc, [r7, r7, ror #31]!	; <UNPREDICTABLE>
    f4ec:	0000007e 	andeq	r0, r0, lr, ror r0
	...
    f4f8:	fe820000 	cdp2	0, 8, cr0, cr2, cr0, {0}
	...
    f504:	18001818 	stmdane	r0, {r3, r4, fp, ip}
    f508:	3c3c1818 	ldccc	8, cr1, [ip], #-96	; 0xffffffa0
    f50c:	0000183c 	andeq	r1, r0, ip, lsr r8
    f510:	00000000 	andeq	r0, r0, r0
    f514:	d0d67c10 	sbcsle	r7, r6, r0, lsl ip
    f518:	7cd6d0d0 	ldclvc	0, cr13, [r6], {208}	; 0xd0
    f51c:	00000010 	andeq	r0, r0, r0, lsl r0
    f520:	6c380000 	ldcvs	0, cr0, [r8], #-0
    f524:	60f06060 	rscsvs	r6, r0, r0, rrx
    f528:	6cf66660 	ldclvs	6, cr6, [r6], #384	; 0x180
	...
    f534:	6c6c7cc6 	stclvs	12, cr7, [ip], #-792	; 0xfffffce8
    f538:	0000c67c 	andeq	ip, r0, ip, ror r6
    f53c:	00000000 	andeq	r0, r0, r0
    f540:	66660000 	strbtvs	r0, [r6], -r0
    f544:	187e183c 	ldmdane	lr!, {r2, r3, r4, r5, fp, ip}^
    f548:	1818187e 	ldmdane	r8, {r1, r2, r3, r4, r5, r6, fp, ip}
    f54c:	00000000 	andeq	r0, r0, r0
    f550:	18180000 	ldmdane	r8, {}	; <UNPREDICTABLE>
    f554:	18001818 	stmdane	r0, {r3, r4, fp, ip}
    f558:	18181818 	ldmdane	r8, {r3, r4, fp, ip}
    f55c:	00000000 	andeq	r0, r0, r0
    f560:	60c67c00 	sbcvs	r7, r6, r0, lsl #24
    f564:	c6c66c38 			; <UNDEFINED> instruction: 0xc6c66c38
    f568:	c60c386c 	strgt	r3, [ip], -ip, ror #16
    f56c:	0000007c 	andeq	r0, r0, ip, ror r0
    f570:	006c6c00 	rsbeq	r6, ip, r0, lsl #24
	...
    f580:	423c0000 	eorsmi	r0, ip, #0
    f584:	a5a1a599 	strge	sl, [r1, #1433]!	; 0x599
    f588:	003c4299 	mlaseq	ip, r9, r2, r4
    f58c:	00000000 	andeq	r0, r0, r0
    f590:	6c3c0000 	ldcvs	0, cr0, [ip], #-0
    f594:	7e003e6c 	cdpvc	14, 0, cr3, cr0, cr12, {3}
	...
    f5a4:	d86c3600 	stmdale	ip!, {r9, sl, ip, sp}^
    f5a8:	0000366c 	andeq	r3, r0, ip, ror #12
	...
    f5b4:	06fe0000 	ldrbteq	r0, [lr], r0
    f5b8:	00060606 	andeq	r0, r6, r6, lsl #12
	...
    f5c4:	7e000000 	cdpvc	0, 0, cr0, cr0, cr0, {0}
	...
    f5d0:	423c0000 	eorsmi	r0, ip, #0
    f5d4:	a5b9a5b9 	ldrge	sl, [r9, #1465]!	; 0x5b9
    f5d8:	003c42a5 	eorseq	r4, ip, r5, lsr #5
    f5dc:	00000000 	andeq	r0, r0, r0
    f5e0:	000000ff 	strdeq	r0, [r0], -pc	; <UNPREDICTABLE>
	...
    f5f0:	6c6c3800 	stclvs	8, cr3, [ip], #-0
    f5f4:	00000038 	andeq	r0, r0, r8, lsr r0
	...
    f604:	7e181800 	cdpvc	8, 1, cr1, cr8, cr0, {0}
    f608:	7e001818 	mcrvc	8, 0, r1, cr0, cr8, {0}
    f60c:	00000000 	andeq	r0, r0, r0
    f610:	30186c38 	andscc	r6, r8, r8, lsr ip
    f614:	0000007c 	andeq	r0, r0, ip, ror r0
	...
    f620:	6c186c38 	ldcvs	12, cr6, [r8], {56}	; 0x38
    f624:	00000038 	andeq	r0, r0, r8, lsr r0
	...
    f630:	60301800 	eorsvs	r1, r0, r0, lsl #16
	...
    f644:	cccccc00 	stclgt	12, cr12, [ip], {0}
    f648:	f6cccccc 			; <UNDEFINED> instruction: 0xf6cccccc
    f64c:	00c0c0c0 	sbceq	ip, r0, r0, asr #1
    f650:	d67f0000 	ldrbtle	r0, [pc], -r0
    f654:	363676d6 			; <UNDEFINED> instruction: 0x363676d6
    f658:	36363636 			; <UNDEFINED> instruction: 0x36363636
	...
    f664:	18180000 	ldmdane	r8, {}	; <UNPREDICTABLE>
	...
    f67c:	00386c18 	eorseq	r6, r8, r8, lsl ip
    f680:	30307030 	eorscc	r7, r0, r0, lsr r0
    f684:	00000078 	andeq	r0, r0, r8, ror r0
	...
    f690:	6c380000 	ldcvs	0, cr0, [r8], #-0
    f694:	7c00386c 	stcvc	8, cr3, [r0], {108}	; 0x6c
	...
    f6a4:	366cd800 	strbtcc	sp, [ip], -r0, lsl #16
    f6a8:	0000d86c 	andeq	sp, r0, ip, ror #16
    f6ac:	00000000 	andeq	r0, r0, r0
    f6b0:	6060e060 	rsbvs	lr, r0, r0, rrx
    f6b4:	30180cf6 			; <UNDEFINED> instruction: 0x30180cf6
    f6b8:	3f1ace66 	svccc	0x001ace66
    f6bc:	00000606 	andeq	r0, r0, r6, lsl #12
    f6c0:	6060e060 	rsbvs	lr, r0, r0, rrx
    f6c4:	30180cf6 			; <UNDEFINED> instruction: 0x30180cf6
    f6c8:	0c06db6e 	stceq	11, cr13, [r6], {110}	; 0x6e
    f6cc:	0000001f 	andeq	r0, r0, pc, lsl r0
    f6d0:	d830d870 	ldmdale	r0!, {r4, r5, r6, fp, ip, lr, pc}
    f6d4:	30180c76 	andscc	r0, r8, r6, ror ip
    f6d8:	3f1ace66 	svccc	0x001ace66
    f6dc:	00000606 	andeq	r0, r0, r6, lsl #12
    f6e0:	00000000 	andeq	r0, r0, r0
    f6e4:	30003030 	andcc	r3, r0, r0, lsr r0
    f6e8:	c6603030 			; <UNDEFINED> instruction: 0xc6603030
    f6ec:	00007cc6 	andeq	r7, r0, r6, asr #25
    f6f0:	38003060 	stmdacc	r0, {r5, r6, ip, sp}
    f6f4:	fec6c66c 	cdp2	6, 12, cr12, cr6, cr12, {3}
    f6f8:	c6c6c6c6 	strbgt	ip, [r6], r6, asr #13
    f6fc:	00000000 	andeq	r0, r0, r0
    f700:	3800180c 	stmdacc	r0, {r2, r3, fp, ip}
    f704:	fec6c66c 	cdp2	6, 12, cr12, cr6, cr12, {3}
    f708:	c6c6c6c6 	strbgt	ip, [r6], r6, asr #13
    f70c:	00000000 	andeq	r0, r0, r0
    f710:	006c3810 	rsbeq	r3, ip, r0, lsl r8
    f714:	c6c66c38 			; <UNDEFINED> instruction: 0xc6c66c38
    f718:	c6c6c6fe 			; <UNDEFINED> instruction: 0xc6c6c6fe
    f71c:	00000000 	andeq	r0, r0, r0
    f720:	3800dc76 	stmdacc	r0, {r1, r2, r4, r5, r6, sl, fp, ip, lr, pc}
    f724:	fec6c66c 	cdp2	6, 12, cr12, cr6, cr12, {3}
    f728:	c6c6c6c6 	strbgt	ip, [r6], r6, asr #13
    f72c:	00000000 	andeq	r0, r0, r0
    f730:	38006c00 	stmdacc	r0, {sl, fp, sp, lr}
    f734:	fec6c66c 	cdp2	6, 12, cr12, cr6, cr12, {3}
    f738:	c6c6c6c6 	strbgt	ip, [r6], r6, asr #13
    f73c:	00000000 	andeq	r0, r0, r0
    f740:	00386c38 	eorseq	r6, r8, r8, lsr ip
    f744:	c6c66c38 			; <UNDEFINED> instruction: 0xc6c66c38
    f748:	c6c6c6fe 			; <UNDEFINED> instruction: 0xc6c6c6fe
    f74c:	00000000 	andeq	r0, r0, r0
    f750:	783e0000 	ldmdavc	lr!, {}	; <UNPREDICTABLE>
    f754:	d8fcd8d8 	ldmle	ip!, {r3, r4, r6, r7, fp, ip, lr, pc}^
    f758:	ded8d8d8 	mrcle	8, 6, sp, cr8, cr8, {6}
    f75c:	00000000 	andeq	r0, r0, r0
    f760:	663c0000 	ldrtvs	r0, [ip], -r0
    f764:	c0c0c0c2 	sbcgt	ip, r0, r2, asr #1
    f768:	3c66c2c0 	sfmcc	f4, 3, [r6], #-768	; 0xfffffd00
    f76c:	003c660c 	eorseq	r6, ip, ip, lsl #12
    f770:	fe003060 	cdp2	0, 0, cr3, cr0, cr0, {3}
    f774:	7c606066 	stclvc	0, cr6, [r0], #-408	; 0xfffffe68
    f778:	fe666060 	cdp2	0, 6, cr6, cr6, cr0, {3}
    f77c:	00000000 	andeq	r0, r0, r0
    f780:	fe00180c 	cdp2	8, 0, cr1, cr0, cr12, {0}
    f784:	7c606066 	stclvc	0, cr6, [r0], #-408	; 0xfffffe68
    f788:	fe666060 	cdp2	0, 6, cr6, cr6, cr0, {3}
    f78c:	00000000 	andeq	r0, r0, r0
    f790:	006c3810 	rsbeq	r3, ip, r0, lsl r8
    f794:	7c6066fe 	stclvc	6, cr6, [r0], #-1016	; 0xfffffc08
    f798:	fe666060 	cdp2	0, 6, cr6, cr6, cr0, {3}
    f79c:	00000000 	andeq	r0, r0, r0
    f7a0:	fe006c00 	cdp2	12, 0, cr6, cr0, cr0, {0}
    f7a4:	7c606066 	stclvc	0, cr6, [r0], #-408	; 0xfffffe68
    f7a8:	fe666060 	cdp2	0, 6, cr6, cr6, cr0, {3}
    f7ac:	00000000 	andeq	r0, r0, r0
    f7b0:	3c003060 	stccc	0, cr3, [r0], {96}	; 0x60
    f7b4:	18181818 	ldmdane	r8, {r3, r4, fp, ip}
    f7b8:	3c181818 	ldccc	8, cr1, [r8], {24}
    f7bc:	00000008 	andeq	r0, r0, r8
    f7c0:	3c000c06 	stccc	12, cr0, [r0], {6}
    f7c4:	18181818 	ldmdane	r8, {r3, r4, fp, ip}
    f7c8:	3c181818 	ldccc	8, cr1, [r8], {24}
    f7cc:	00000000 	andeq	r0, r0, r0
    f7d0:	00663c18 	rsbeq	r3, r6, r8, lsl ip
    f7d4:	1818183c 	ldmdane	r8, {r2, r3, r4, r5, fp, ip}
    f7d8:	3c181818 	ldccc	8, cr1, [r8], {24}
    f7dc:	00000000 	andeq	r0, r0, r0
    f7e0:	3c006600 	stccc	6, cr6, [r0], {-0}
    f7e4:	18181818 	ldmdane	r8, {r3, r4, fp, ip}
    f7e8:	3c181818 	ldccc	8, cr1, [r8], {24}
    f7ec:	00000000 	andeq	r0, r0, r0
    f7f0:	6cf80000 	ldclvs	0, cr0, [r8]
    f7f4:	66f66666 	ldrbtvs	r6, [r6], r6, ror #12
    f7f8:	f86c6666 			; <UNDEFINED> instruction: 0xf86c6666
    f7fc:	00000000 	andeq	r0, r0, r0
    f800:	c600dc76 			; <UNDEFINED> instruction: 0xc600dc76
    f804:	defef6e6 	cdple	6, 15, cr15, cr14, cr6, {7}
    f808:	c6c6c6ce 	strbgt	ip, [r6], lr, asr #13
    f80c:	00000000 	andeq	r0, r0, r0
    f810:	7c003060 	stcvc	0, cr3, [r0], {96}	; 0x60
    f814:	c6c6c6c6 	strbgt	ip, [r6], r6, asr #13
    f818:	7cc6c6c6 	stclvc	6, cr12, [r6], {198}	; 0xc6
    f81c:	00000000 	andeq	r0, r0, r0
    f820:	7c00180c 	stcvc	8, cr1, [r0], {12}
    f824:	c6c6c6c6 	strbgt	ip, [r6], r6, asr #13
    f828:	7cc6c6c6 	stclvc	6, cr12, [r6], {198}	; 0xc6
    f82c:	00000000 	andeq	r0, r0, r0
    f830:	006c3810 	rsbeq	r3, ip, r0, lsl r8
    f834:	c6c6c67c 			; <UNDEFINED> instruction: 0xc6c6c67c
    f838:	7cc6c6c6 	stclvc	6, cr12, [r6], {198}	; 0xc6
    f83c:	00000000 	andeq	r0, r0, r0
    f840:	7c00dc76 	stcvc	12, cr13, [r0], {118}	; 0x76
    f844:	c6c6c6c6 	strbgt	ip, [r6], r6, asr #13
    f848:	7cc6c6c6 	stclvc	6, cr12, [r6], {198}	; 0xc6
    f84c:	00000000 	andeq	r0, r0, r0
    f850:	7c006c00 	stcvc	12, cr6, [r0], {-0}
    f854:	c6c6c6c6 	strbgt	ip, [r6], r6, asr #13
    f858:	7cc6c6c6 	stclvc	6, cr12, [r6], {198}	; 0xc6
	...
    f864:	183c6600 	ldmdane	ip!, {r9, sl, sp, lr}
    f868:	0000663c 	andeq	r6, r0, ip, lsr r6
    f86c:	00000000 	andeq	r0, r0, r0
    f870:	c67e0000 	ldrbtgt	r0, [lr], -r0
    f874:	f6decece 			; <UNDEFINED> instruction: 0xf6decece
    f878:	fcc6e6e6 	stc2l	6, cr14, [r6], {230}	; 0xe6
    f87c:	00000000 	andeq	r0, r0, r0
    f880:	c6003060 	strgt	r3, [r0], -r0, rrx
    f884:	c6c6c6c6 	strbgt	ip, [r6], r6, asr #13
    f888:	7cc6c6c6 	stclvc	6, cr12, [r6], {198}	; 0xc6
    f88c:	00000000 	andeq	r0, r0, r0
    f890:	c600180c 	strgt	r1, [r0], -ip, lsl #16
    f894:	c6c6c6c6 	strbgt	ip, [r6], r6, asr #13
    f898:	7cc6c6c6 	stclvc	6, cr12, [r6], {198}	; 0xc6
    f89c:	00000000 	andeq	r0, r0, r0
    f8a0:	006c3810 	rsbeq	r3, ip, r0, lsl r8
    f8a4:	c6c6c6c6 	strbgt	ip, [r6], r6, asr #13
    f8a8:	7cc6c6c6 	stclvc	6, cr12, [r6], {198}	; 0xc6
    f8ac:	00000000 	andeq	r0, r0, r0
    f8b0:	c6006c00 	strgt	r6, [r0], -r0, lsl #24
    f8b4:	c6c6c6c6 	strbgt	ip, [r6], r6, asr #13
    f8b8:	7cc6c6c6 	stclvc	6, cr12, [r6], {198}	; 0xc6
    f8bc:	00000000 	andeq	r0, r0, r0
    f8c0:	66000c06 	strvs	r0, [r0], -r6, lsl #24
    f8c4:	3c666666 	stclcc	6, cr6, [r6], #-408	; 0xfffffe68
    f8c8:	3c181818 	ldccc	8, cr1, [r8], {24}
    f8cc:	00000000 	andeq	r0, r0, r0
    f8d0:	60f00000 	rscsvs	r0, r0, r0
    f8d4:	6666667c 			; <UNDEFINED> instruction: 0x6666667c
    f8d8:	f0607c66 			; <UNDEFINED> instruction: 0xf0607c66
    f8dc:	00000000 	andeq	r0, r0, r0
    f8e0:	c67c0000 	ldrbtgt	r0, [ip], -r0
    f8e4:	c6ccc6c6 	strbgt	ip, [ip], r6, asr #13
    f8e8:	dcd6c6c6 	ldclle	6, cr12, [r6], {198}	; 0xc6
    f8ec:	00000080 	andeq	r0, r0, r0, lsl #1
    f8f0:	18306000 	ldmdane	r0!, {sp, lr}
    f8f4:	7c0c7800 	stcvc	8, cr7, [ip], {-0}
    f8f8:	76cccccc 	strbvc	ip, [ip], ip, asr #25
    f8fc:	00000000 	andeq	r0, r0, r0
    f900:	60301800 	eorsvs	r1, r0, r0, lsl #16
    f904:	7c0c7800 	stcvc	8, cr7, [ip], {-0}
    f908:	76cccccc 	strbvc	ip, [ip], ip, asr #25
    f90c:	00000000 	andeq	r0, r0, r0
    f910:	6c381000 	ldcvs	0, cr1, [r8], #-0
    f914:	7c0c7800 	stcvc	8, cr7, [ip], {-0}
    f918:	76cccccc 	strbvc	ip, [ip], ip, asr #25
    f91c:	00000000 	andeq	r0, r0, r0
    f920:	dc760000 	ldclle	0, cr0, [r6], #-0
    f924:	7c0c7800 	stcvc	8, cr7, [ip], {-0}
    f928:	76cccccc 	strbvc	ip, [ip], ip, asr #25
    f92c:	00000000 	andeq	r0, r0, r0
    f930:	6c000000 	stcvs	0, cr0, [r0], {-0}
    f934:	7c0c7800 	stcvc	8, cr7, [ip], {-0}
    f938:	76cccccc 	strbvc	ip, [ip], ip, asr #25
    f93c:	00000000 	andeq	r0, r0, r0
    f940:	386c3800 	stmdacc	ip!, {fp, ip, sp}^
    f944:	7c0c7800 	stcvc	8, cr7, [ip], {-0}
    f948:	76cccccc 	strbvc	ip, [ip], ip, asr #25
	...
    f954:	1bdb7e00 	blne	ff6ef15c <_end+0xff6df02c>
    f958:	7edbd87f 	mrcvc	8, 6, sp, cr11, cr15, {3}
	...
    f964:	c0c67c00 	sbcgt	r7, r6, r0, lsl #24
    f968:	7cc6c0c0 	stclvc	0, cr12, [r6], {192}	; 0xc0
    f96c:	00386c18 	eorseq	r6, r8, r8, lsl ip
    f970:	18306000 	ldmdane	r0!, {sp, lr}
    f974:	fec67c00 	cdp2	12, 12, cr7, cr6, cr0, {0}
    f978:	7cc6c0c0 	stclvc	0, cr12, [r6], {192}	; 0xc0
    f97c:	00000000 	andeq	r0, r0, r0
    f980:	30180c00 	andscc	r0, r8, r0, lsl #24
    f984:	fec67c00 	cdp2	12, 12, cr7, cr6, cr0, {0}
    f988:	7cc6c0c0 	stclvc	0, cr12, [r6], {192}	; 0xc0
    f98c:	00000000 	andeq	r0, r0, r0
    f990:	6c381000 	ldcvs	0, cr1, [r8], #-0
    f994:	fec67c00 	cdp2	12, 12, cr7, cr6, cr0, {0}
    f998:	7cc6c0c0 	stclvc	0, cr12, [r6], {192}	; 0xc0
    f99c:	00000000 	andeq	r0, r0, r0
    f9a0:	6c000000 	stcvs	0, cr0, [r0], {-0}
    f9a4:	fec67c00 	cdp2	12, 12, cr7, cr6, cr0, {0}
    f9a8:	7cc6c0c0 	stclvc	0, cr12, [r6], {192}	; 0xc0
    f9ac:	00000000 	andeq	r0, r0, r0
    f9b0:	18306000 	ldmdane	r0!, {sp, lr}
    f9b4:	18183800 	ldmdane	r8, {fp, ip, sp}
    f9b8:	3c181818 	ldccc	8, cr1, [r8], {24}
    f9bc:	00000000 	andeq	r0, r0, r0
    f9c0:	30180c00 	andscc	r0, r8, r0, lsl #24
    f9c4:	18183800 	ldmdane	r8, {fp, ip, sp}
    f9c8:	3c181818 	ldccc	8, cr1, [r8], {24}
    f9cc:	00000000 	andeq	r0, r0, r0
    f9d0:	663c1800 	ldrtvs	r1, [ip], -r0, lsl #16
    f9d4:	18183800 	ldmdane	r8, {fp, ip, sp}
    f9d8:	3c181818 	ldccc	8, cr1, [r8], {24}
    f9dc:	00000000 	andeq	r0, r0, r0
    f9e0:	6c000000 	stcvs	0, cr0, [r0], {-0}
    f9e4:	18183800 	ldmdane	r8, {fp, ip, sp}
    f9e8:	3c181818 	ldccc	8, cr1, [r8], {24}
    f9ec:	00000000 	andeq	r0, r0, r0
    f9f0:	78307800 	ldmdavc	r0!, {fp, ip, sp, lr}
    f9f4:	c6c67e0c 	strbgt	r7, [r6], ip, lsl #28
    f9f8:	7cc6c6c6 	stclvc	6, cr12, [r6], {198}	; 0xc6
    f9fc:	00000000 	andeq	r0, r0, r0
    fa00:	dc760000 	ldclle	0, cr0, [r6], #-0
    fa04:	6666dc00 	strbtvs	sp, [r6], -r0, lsl #24
    fa08:	66666666 	strbtvs	r6, [r6], -r6, ror #12
    fa0c:	00000000 	andeq	r0, r0, r0
    fa10:	18306000 	ldmdane	r0!, {sp, lr}
    fa14:	c6c67c00 	strbgt	r7, [r6], r0, lsl #24
    fa18:	7cc6c6c6 	stclvc	6, cr12, [r6], {198}	; 0xc6
    fa1c:	00000000 	andeq	r0, r0, r0
    fa20:	30180c00 	andscc	r0, r8, r0, lsl #24
    fa24:	c6c67c00 	strbgt	r7, [r6], r0, lsl #24
    fa28:	7cc6c6c6 	stclvc	6, cr12, [r6], {198}	; 0xc6
    fa2c:	00000000 	andeq	r0, r0, r0
    fa30:	6c381000 	ldcvs	0, cr1, [r8], #-0
    fa34:	c6c67c00 	strbgt	r7, [r6], r0, lsl #24
    fa38:	7cc6c6c6 	stclvc	6, cr12, [r6], {198}	; 0xc6
    fa3c:	00000000 	andeq	r0, r0, r0
    fa40:	dc760000 	ldclle	0, cr0, [r6], #-0
    fa44:	c6c67c00 	strbgt	r7, [r6], r0, lsl #24
    fa48:	7cc6c6c6 	stclvc	6, cr12, [r6], {198}	; 0xc6
    fa4c:	00000000 	andeq	r0, r0, r0
    fa50:	6c000000 	stcvs	0, cr0, [r0], {-0}
    fa54:	c6c67c00 	strbgt	r7, [r6], r0, lsl #24
    fa58:	7cc6c6c6 	stclvc	6, cr12, [r6], {198}	; 0xc6
	...
    fa64:	7e001800 	cdpvc	8, 0, cr1, cr0, cr0, {0}
    fa68:	00001800 	andeq	r1, r0, r0, lsl #16
	...
    fa74:	dece7e00 	cdple	14, 12, cr7, cr14, cr0, {0}
    fa78:	fce6f6fe 	stc2l	6, cr15, [r6], #1016	; 0x3f8
    fa7c:	00000000 	andeq	r0, r0, r0
    fa80:	18306000 	ldmdane	r0!, {sp, lr}
    fa84:	cccccc00 	stclgt	12, cr12, [ip], {0}
    fa88:	76cccccc 	strbvc	ip, [ip], ip, asr #25
    fa8c:	00000000 	andeq	r0, r0, r0
    fa90:	60301800 	eorsvs	r1, r0, r0, lsl #16
    fa94:	cccccc00 	stclgt	12, cr12, [ip], {0}
    fa98:	76cccccc 	strbvc	ip, [ip], ip, asr #25
    fa9c:	00000000 	andeq	r0, r0, r0
    faa0:	cc783000 	ldclgt	0, cr3, [r8], #-0
    faa4:	cccccc00 	stclgt	12, cr12, [ip], {0}
    faa8:	76cccccc 	strbvc	ip, [ip], ip, asr #25
    faac:	00000000 	andeq	r0, r0, r0
    fab0:	cc000000 	stcgt	0, cr0, [r0], {-0}
    fab4:	cccccc00 	stclgt	12, cr12, [ip], {0}
    fab8:	76cccccc 	strbvc	ip, [ip], ip, asr #25
    fabc:	00000000 	andeq	r0, r0, r0
    fac0:	30180c00 	andscc	r0, r8, r0, lsl #24
    fac4:	c6c6c600 	strbgt	ip, [r6], r0, lsl #12
    fac8:	7ec6c6c6 	cdpvc	6, 12, cr12, cr6, cr6, {6}
    facc:	00f80c06 	rscseq	r0, r8, r6, lsl #24
    fad0:	60f00000 	rscsvs	r0, r0, r0
    fad4:	66667c60 	strbtvs	r7, [r6], -r0, ror #24
    fad8:	607c6666 	rsbsvs	r6, ip, r6, ror #12
    fadc:	0000f060 	andeq	pc, r0, r0, rrx
    fae0:	6c000000 	stcvs	0, cr0, [r0], {-0}
    fae4:	c6c6c600 	strbgt	ip, [r6], r0, lsl #12
    fae8:	7ec6c6c6 	cdpvc	6, 12, cr12, cr6, cr6, {6}
    faec:	00f80c06 	rscseq	r0, r8, r6, lsl #24
    faf0:	736f506e 	cmnvc	pc, #110	; 0x6e
    faf4:	203c2058 	eorscs	r2, ip, r8, asr r0
    faf8:	436e5f6d 	cmnmi	lr, #436	; 0x1b4
    fafc:	57726168 	ldrbpl	r6, [r2, -r8, ror #2]!
    fb00:	68746469 	ldmdavs	r4!, {r0, r3, r5, r6, sl, sp, lr}^
    fb04:	00000000 	andeq	r0, r0, r0
    fb08:	72616863 	rsbvc	r6, r1, #6488064	; 0x630000
    fb0c:	656e6567 	strbvs	r6, [lr, #-1383]!	; 0x567
    fb10:	6f746172 	svcvs	0x00746172
    fb14:	70632e72 	rsbvc	r2, r3, r2, ror lr
    fb18:	00000070 	andeq	r0, r0, r0, ror r0

0000fb1c <_ZL9FromDebug>:
    fb1c:	75626564 	strbvc	r6, [r2, #-1380]!	; 0x564
    fb20:	00000067 	andeq	r0, r0, r7, rrx
    fb24:	706d7544 	rsbvc	r7, sp, r4, asr #10
    fb28:	20676e69 	rsbcs	r6, r7, r9, ror #28
    fb2c:	58257830 	stmdapl	r5!, {r4, r5, fp, ip, sp, lr}
    fb30:	74796220 	ldrbtvc	r6, [r9], #-544	; 0x220
    fb34:	73207365 	teqvc	r0, #-1811939327	; 0x94000001
    fb38:	74726174 	ldrbtvc	r6, [r2], #-372	; 0x174
    fb3c:	20676e69 	rsbcs	r6, r7, r9, ror #28
    fb40:	30207461 	eorcc	r7, r0, r1, ror #8
    fb44:	00582578 	subseq	r2, r8, r8, ror r5
    fb48:	58343025 	ldmdapl	r4!, {r0, r2, r5, ip, sp}
    fb4c:	3025203a 	eorcc	r2, r5, sl, lsr r0
    fb50:	25205832 	strcs	r5, [r0, #-2098]!	; 0x832
    fb54:	20583230 	subscs	r3, r8, r0, lsr r2
    fb58:	58323025 	ldmdapl	r2!, {r0, r2, r5, ip, sp}
    fb5c:	32302520 	eorscc	r2, r0, #32, 10	; 0x8000000
    fb60:	30252058 	eorcc	r2, r5, r8, asr r0
    fb64:	25205832 	strcs	r5, [r0, #-2098]!	; 0x832
    fb68:	20583230 	subscs	r3, r8, r0, lsr r2
    fb6c:	58323025 	ldmdapl	r2!, {r0, r2, r5, ip, sp}
    fb70:	32302520 	eorscc	r2, r0, #32, 10	; 0x8000000
    fb74:	30252d58 	eorcc	r2, r5, r8, asr sp
    fb78:	25205832 	strcs	r5, [r0, #-2098]!	; 0x832
    fb7c:	20583230 	subscs	r3, r8, r0, lsr r2
    fb80:	58323025 	ldmdapl	r2!, {r0, r2, r5, ip, sp}
    fb84:	32302520 	eorscc	r2, r0, #32, 10	; 0x8000000
    fb88:	30252058 	eorcc	r2, r5, r8, asr r0
    fb8c:	25205832 	strcs	r5, [r0, #-2098]!	; 0x832
    fb90:	20583230 	subscs	r3, r8, r0, lsr r2
    fb94:	58323025 	ldmdapl	r2!, {r0, r2, r5, ip, sp}
    fb98:	32302520 	eorscc	r2, r0, #32, 10	; 0x8000000
    fb9c:	00000058 	andeq	r0, r0, r8, asr r0
    fba0:	63617473 	cmnvs	r1, #1929379840	; 0x73000000
    fba4:	75255b6b 	strvc	r5, [r5, #-2923]!	; 0xb6b
    fba8:	7369205d 	cmnvc	r9, #93	; 0x5d
    fbac:	25783020 	ldrbcs	r3, [r8, #-32]!
    fbb0:	00000058 	andeq	r0, r0, r8, asr r0
    fbb4:	68545f73 	ldmdavs	r4, {r0, r1, r4, r5, r6, r8, r9, sl, fp, ip, lr}^
    fbb8:	3d207369 	stccc	3, cr7, [r0, #-420]!	; 0xfffffe5c
    fbbc:	0030203d 	eorseq	r2, r0, sp, lsr r0
    fbc0:	69766564 	ldmdbvs	r6!, {r2, r5, r6, r8, sl, sp, lr}^
    fbc4:	616e6563 	cmnvs	lr, r3, ror #10
    fbc8:	6573656d 	ldrbvs	r6, [r3, #-1389]!	; 0x56d
    fbcc:	63697672 	cmnvs	r9, #119537664	; 0x7200000
    fbd0:	70632e65 	rsbvc	r2, r3, r5, ror #28
    fbd4:	00000070 	andeq	r0, r0, r0, ror r0
    fbd8:	666e4970 			; <UNDEFINED> instruction: 0x666e4970
    fbdc:	3d21206f 	stccc	0, cr2, [r1, #-444]!	; 0xfffffe44
    fbe0:	00003020 	andeq	r3, r0, r0, lsr #32
    fbe4:	6d614e70 	stclvs	14, cr4, [r1, #-448]!	; 0xfffffe40
    fbe8:	3d212065 	stccc	0, cr2, [r1, #-404]!	; 0xfffffe6c
    fbec:	00003020 	andeq	r3, r0, r0, lsr #32
    fbf0:	666e4970 			; <UNDEFINED> instruction: 0x666e4970
    fbf4:	703e2d6f 	eorsvc	r2, lr, pc, ror #26
    fbf8:	656d614e 	strbvs	r6, [sp, #-334]!	; 0x14e
    fbfc:	203d2120 	eorscs	r2, sp, r0, lsr #2
    fc00:	00000030 	andeq	r0, r0, r0, lsr r0
    fc04:	76654470 			; <UNDEFINED> instruction: 0x76654470
    fc08:	20656369 	rsbcs	r6, r5, r9, ror #6
    fc0c:	30203d21 	eorcc	r3, r0, r1, lsr #26
    fc10:	00000000 	andeq	r0, r0, r0
    fc14:	73655270 	cmnvc	r5, #112, 4
    fc18:	20746c75 	rsbscs	r6, r4, r5, ror ip
    fc1c:	30203d21 	eorcc	r3, r0, r1, lsr #26
    fc20:	00000000 	andeq	r0, r0, r0
    fc24:	68545f73 	ldmdavs	r4, {r0, r1, r4, r5, r6, r8, r9, sl, fp, ip, lr}^
    fc28:	21207369 	teqcs	r0, r9, ror #6
    fc2c:	0030203d 	eorseq	r2, r0, sp, lsr r0
    fc30:	6d315b1b 	fldmdbxvs	r1!, {d5-d17}	;@ Deprecated
    fc34:	00000000 	andeq	r0, r0, r0
    fc38:	00000020 	andeq	r0, r0, r0, lsr #32
    fc3c:	0000203a 	andeq	r2, r0, sl, lsr r0
    fc40:	6d305b1b 	fldmdbxvs	r0!, {d5-d17}	;@ Deprecated
    fc44:	00000000 	andeq	r0, r0, r0
    fc48:	0000000a 	andeq	r0, r0, sl
    fc4c:	67676f6c 	strbvs	r6, [r7, -ip, ror #30]!
    fc50:	00007265 	andeq	r7, r0, r5, ror #4
    fc54:	67676f4c 	strbvs	r6, [r7, -ip, asr #30]!
    fc58:	20676e69 	rsbcs	r6, r7, r9, ror #28
    fc5c:	72617473 	rsbvc	r7, r1, #1929379840	; 0x73000000
    fc60:	00646574 	rsbeq	r6, r4, r4, ror r5
    fc64:	00000000 	andeq	r0, r0, r0

0000fc68 <_ZTV13CSerialDevice>:
	...
    fc70:	0000c7c4 	andeq	ip, r0, r4, asr #15
    fc74:	0000c82c 	andeq	ip, r0, ip, lsr #16
    fc78:	0000e690 	muleq	r0, r0, r6
    fc7c:	0000c718 	andeq	ip, r0, r8, lsl r7
    fc80:	0000e6a0 	andeq	lr, r0, r0, lsr #13
    fc84:	00000000 	andeq	r0, r0, r0
    fc88:	20303033 	eorscs	r3, r0, r3, lsr r0
    fc8c:	6e203d3c 	mcrvs	13, 1, r3, cr0, cr12, {1}
    fc90:	64756142 	ldrbtvs	r6, [r5], #-322	; 0x142
    fc94:	65746172 	ldrbvs	r6, [r4, #-370]!	; 0x172
    fc98:	20262620 	eorcs	r2, r6, r0, lsr #12
    fc9c:	7561426e 	strbvc	r4, [r1, #-622]!	; 0x26e
    fca0:	74617264 	strbtvc	r7, [r1], #-612	; 0x264
    fca4:	3d3c2065 	ldccc	0, cr2, [ip, #-404]!	; 0xfffffe6c
    fca8:	35313120 	ldrcc	r3, [r1, #-288]!	; 0x120
    fcac:	00303032 	eorseq	r3, r0, r2, lsr r0
    fcb0:	69726573 	ldmdbvs	r2!, {r0, r1, r4, r5, r6, r8, sl, sp, lr}^
    fcb4:	632e6c61 	teqvs	lr, #24832	; 0x6100
    fcb8:	00007070 	andeq	r7, r0, r0, ror r0
    fcbc:	746e496e 	strbtvc	r4, [lr], #-2414	; 0x96e
    fcc0:	20766944 	rsbscs	r6, r6, r4, asr #18
    fcc4:	30203d3c 	eorcc	r3, r0, ip, lsr sp
    fcc8:	46464678 			; <UNDEFINED> instruction: 0x46464678
    fccc:	00000046 	andeq	r0, r0, r6, asr #32
    fcd0:	6172466e 	cmnvs	r2, lr, ror #12
    fcd4:	69447463 	stmdbvs	r4, {r0, r1, r5, r6, sl, ip, sp, lr}^
    fcd8:	3d3c2076 	ldccc	0, cr2, [ip, #-472]!	; 0xfffffe28
    fcdc:	33783020 	cmncc	r8, #32
    fce0:	00000046 	andeq	r0, r0, r6, asr #32
    fce4:	53797474 	cmnpl	r9, #116, 8	; 0x74000000
    fce8:	00000031 	andeq	r0, r0, r1, lsr r0
    fcec:	61684370 	smcvs	33840	; 0x8430
    fcf0:	3d212072 	stccc	0, cr2, [r1, #-456]!	; 0xfffffe38
    fcf4:	00003020 	andeq	r3, r0, r0, lsr #32

0000fcf8 <_ZTV7CString>:
	...
    fd00:	0000c848 	andeq	ip, r0, r8, asr #16
    fd04:	0000c87c 	andeq	ip, r0, ip, ror r8

0000fd08 <_ZL10FromExcept>:
    fd08:	65637865 	strbvs	r7, [r3, #-2149]!	; 0x865
    fd0c:	00007470 	andeq	r7, r0, r0, ror r4
    fd10:	65637865 	strbvs	r7, [r3, #-2149]!	; 0x865
    fd14:	6f697470 	svcvs	0x00697470
    fd18:	6e61686e 	cdpvs	8, 6, cr6, cr1, cr14, {3}
    fd1c:	72656c64 	rsbvc	r6, r5, #100, 24	; 0x6400
    fd20:	7070632e 	rsbsvc	r6, r0, lr, lsr #6
    fd24:	00000000 	andeq	r0, r0, r0
    fd28:	65637845 	strbvs	r7, [r3, #-2117]!	; 0x845
    fd2c:	6f697470 	svcvs	0x00697470
    fd30:	25203a6e 	strcs	r3, [r0, #-2670]!	; 0xa6e
    fd34:	00000073 	andeq	r0, r0, r3, ror r0
    fd38:	61724670 	cmnvs	r2, r0, ror r6
    fd3c:	2120656d 	teqcs	r0, sp, ror #10
    fd40:	0030203d 	eorseq	r2, r0, sp, lsr r0
    fd44:	28207325 	stmdacs	r0!, {r0, r2, r5, r8, r9, ip, sp, lr}
    fd48:	30204350 	eorcc	r4, r0, r0, asr r3
    fd4c:	2c582578 	cfldr64cs	mvdx2, [r8], {120}	; 0x78
    fd50:	52534620 	subspl	r4, r3, #32, 12	; 0x2000000
    fd54:	25783020 	ldrbcs	r3, [r8, #-32]!
    fd58:	46202c58 			; <UNDEFINED> instruction: 0x46202c58
    fd5c:	30205241 	eorcc	r5, r0, r1, asr #4
    fd60:	2c582578 	cfldr64cs	mvdx2, [r8], {120}	; 0x78
    fd64:	20505320 	subscs	r5, r0, r0, lsr #6
    fd68:	58257830 	stmdapl	r5!, {r4, r5, fp, ip, sp, lr}
    fd6c:	524c202c 	subpl	r2, ip, #44	; 0x2c
    fd70:	25783020 	ldrbcs	r3, [r8, #-32]!
    fd74:	50202c58 	eorpl	r2, r0, r8, asr ip
    fd78:	30205253 	eorcc	r5, r0, r3, asr r2
    fd7c:	29582578 	ldmdbcs	r8, {r3, r4, r5, r6, r8, sl, sp}^
    fd80:	00000000 	andeq	r0, r0, r0
    fd84:	69766944 	ldmdbvs	r6!, {r2, r6, r8, fp, sp, lr}^
    fd88:	6e6f6973 	mcrvs	9, 3, r6, cr15, cr3, {3}
    fd8c:	20796220 	rsbscs	r6, r9, r0, lsr #4
    fd90:	6f72657a 	svcvs	0x0072657a
    fd94:	00000000 	andeq	r0, r0, r0
    fd98:	65646e55 	strbvs	r6, [r4, #-3669]!	; 0xe55
    fd9c:	656e6966 	strbvs	r6, [lr, #-2406]!	; 0x966
    fda0:	6e692064 	cdpvs	0, 6, cr2, cr9, cr4, {3}
    fda4:	75727473 	ldrbvc	r7, [r2, #-1139]!	; 0x473
    fda8:	6f697463 	svcvs	0x00697463
    fdac:	0000006e 	andeq	r0, r0, lr, rrx
    fdb0:	66657250 			; <UNDEFINED> instruction: 0x66657250
    fdb4:	68637465 	stmdavs	r3!, {r0, r2, r5, r6, sl, ip, sp, lr}^
    fdb8:	6f626120 	svcvs	0x00626120
    fdbc:	00007472 	andeq	r7, r0, r2, ror r4
    fdc0:	61746144 	cmnvs	r4, r4, asr #2
    fdc4:	6f626120 	svcvs	0x00626120
    fdc8:	00007472 	andeq	r7, r0, r2, ror r4
    fdcc:	5152496e 	cmppl	r2, lr, ror #18
    fdd0:	49203c20 	stmdbmi	r0!, {r5, sl, fp, ip, sp}
    fdd4:	4c5f5152 	ldfmie	f5, [pc], {82}	; 0x52
    fdd8:	53454e49 	movtpl	r4, #24137	; 0x5e49
    fddc:	00000000 	andeq	r0, r0, r0
    fde0:	65746e69 	ldrbvs	r6, [r4, #-3689]!	; 0xe69
    fde4:	70757272 	rsbsvc	r7, r5, r2, ror r2
    fde8:	70632e74 	rsbvc	r2, r3, r4, ror lr
    fdec:	00000070 	andeq	r0, r0, r0, ror r0
    fdf0:	70615f6d 	rsbvc	r5, r1, sp, ror #30
    fdf4:	48515249 	ldmdami	r1, {r0, r3, r6, r9, ip, lr}^
    fdf8:	6c646e61 	stclvs	14, cr6, [r4], #-388	; 0xfffffe7c
    fdfc:	6e5b7265 	cdpvs	2, 5, cr7, cr11, cr5, {3}
    fe00:	5d515249 	lfmpl	f5, 2, [r1, #-292]	; 0xfffffedc
    fe04:	203d3d20 	eorscs	r3, sp, r0, lsr #26
    fe08:	00000030 	andeq	r0, r0, r0, lsr r0
    fe0c:	70615f6d 	rsbvc	r5, r1, sp, ror #30
    fe10:	48515249 	ldmdami	r1, {r0, r3, r6, r9, ip, lr}^
    fe14:	6c646e61 	stclvs	14, cr6, [r4], #-388	; 0xfffffe7c
    fe18:	6e5b7265 	cdpvs	2, 5, cr7, cr11, cr5, {3}
    fe1c:	5d515249 	lfmpl	f5, 2, [r1, #-292]	; 0xfffffedc
    fe20:	203d2120 	eorscs	r2, sp, r0, lsr #2
    fe24:	00000030 	andeq	r0, r0, r0, lsr r0
    fe28:	70615f6d 	rsbvc	r5, r1, sp, ror #30
    fe2c:	5b6e6950 	blpl	1baa374 <_end+0x1b9a244>
    fe30:	6e69506e 	cdpvs	0, 6, cr5, cr9, cr14, {3}
    fe34:	3d3d205d 	ldccc	0, cr2, [sp, #-372]!	; 0xfffffe8c
    fe38:	00003020 	andeq	r3, r0, r0, lsr #32
    fe3c:	6f697067 	svcvs	0x00697067
    fe40:	616e616d 	cmnvs	lr, sp, ror #2
    fe44:	2e726567 	cdpcs	5, 7, cr6, cr2, cr7, {3}
    fe48:	00707063 	rsbseq	r7, r0, r3, rrx
    fe4c:	49705f6d 	ldmdbmi	r0!, {r0, r2, r3, r5, r6, r8, r9, sl, fp, ip, lr}^
    fe50:	7265746e 	rsbvc	r7, r5, #1845493760	; 0x6e000000
    fe54:	74707572 	ldrbtvc	r7, [r0], #-1394	; 0x572
    fe58:	203d2120 	eorscs	r2, sp, r0, lsr #2
    fe5c:	00000030 	andeq	r0, r0, r0, lsr r0
    fe60:	625f6d21 	subsvs	r6, pc, #2112	; 0x840
    fe64:	43515249 	cmpmi	r1, #-1879048188	; 0x90000004
    fe68:	656e6e6f 	strbvs	r6, [lr, #-3695]!	; 0xe6f
    fe6c:	64657463 	strbtvs	r7, [r5], #-1123	; 0x463
    fe70:	00000000 	andeq	r0, r0, r0
    fe74:	49625f6d 	stmdbmi	r2!, {r0, r2, r3, r5, r6, r8, r9, sl, fp, ip, lr}^
    fe78:	6f435152 	svcvs	0x00435152
    fe7c:	63656e6e 	cmnvs	r5, #1760	; 0x6e0
    fe80:	00646574 	rsbeq	r6, r4, r4, ror r5
    fe84:	6e695070 	mcrvs	0, 3, r5, cr9, cr0, {3}
    fe88:	203d2120 	eorscs	r2, sp, r0, lsr #2
    fe8c:	00000030 	andeq	r0, r0, r0, lsr r0
    fe90:	70615f6d 	rsbvc	r5, r1, sp, ror #30
    fe94:	5b6e6950 	blpl	1baa3dc <_end+0x1b9a2ac>
    fe98:	6e69506e 	cdpvs	0, 6, cr5, cr9, cr14, {3}
    fe9c:	3d21205d 	stccc	0, cr2, [r1, #-372]!	; 0xfffffe8c
    fea0:	00003020 	andeq	r3, r0, r0, lsr #32
    fea4:	72615070 	rsbvc	r5, r1, #112	; 0x70
    fea8:	21206d61 	teqcs	r0, r1, ror #26
    feac:	0030203d 	eorseq	r2, r0, sp, lsr r0

0000feb0 <_ZZN10CGPIOClock5StartEjjjE7MinDivI>:
    feb0:	00000001 	andeq	r0, r0, r1
    feb4:	00000002 	andeq	r0, r0, r2
    feb8:	00000003 	andeq	r0, r0, r3
    febc:	00000005 	andeq	r0, r0, r5
    fec0:	6c435f6d 	mcrrvs	15, 6, r5, r3, cr13
    fec4:	206b636f 	rsbcs	r6, fp, pc, ror #6
    fec8:	47203d3c 			; <UNDEFINED> instruction: 0x47203d3c
    fecc:	434f4950 	movtmi	r4, #63824	; 0xf950
    fed0:	6b636f6c 	blvs	18ebc88 <_end+0x18dbb58>
    fed4:	004d5750 	subeq	r5, sp, r0, asr r7
    fed8:	6f697067 	svcvs	0x00697067
    fedc:	636f6c63 	cmnvs	pc, #25344	; 0x6300
    fee0:	70632e6b 	rsbvc	r2, r3, fp, ror #28
    fee4:	00000070 	andeq	r0, r0, r0, ror r0
    fee8:	6f535f6d 	svcvs	0x00535f6d
    feec:	65637275 	strbvs	r7, [r3, #-629]!	; 0x275
    fef0:	203d3c20 	eorscs	r3, sp, r0, lsr #24
    fef4:	4f495047 	svcmi	0x00495047
    fef8:	636f6c43 	cmnvs	pc, #17152	; 0x4300
    fefc:	756f536b 	strbvc	r5, [pc, #-875]!	; fb99 <_ZL9FromDebug+0x7d>
    ff00:	48656372 	stmdami	r5!, {r1, r4, r5, r6, r8, r9, sp, lr}^
    ff04:	00494d44 	subeq	r4, r9, r4, asr #26
    ff08:	53414d6e 	movtpl	r4, #7534	; 0x1d6e
    ff0c:	3d3c2048 	ldccc	0, cr2, [ip, #-288]!	; 0xfffffee0
    ff10:	00003320 	andeq	r3, r0, r0, lsr #6
    ff14:	446e694d 	strbtmi	r6, [lr], #-2381	; 0x94d
    ff18:	5b497669 	blpl	126d8c4 <_end+0x125d794>
    ff1c:	53414d6e 	movtpl	r4, #7534	; 0x1d6e
    ff20:	3c205d48 	stccc	13, cr5, [r0], #-288	; 0xfffffee0
    ff24:	446e203d 	strbtmi	r2, [lr], #-61	; 0x3d
    ff28:	20497669 	subcs	r7, r9, r9, ror #12
    ff2c:	6e202626 	cfmadda32vs	mvax1, mvax2, mvfx0, mvfx6
    ff30:	49766944 	ldmdbmi	r6!, {r2, r6, r8, fp, sp, lr}^
    ff34:	203d3c20 	eorscs	r3, sp, r0, lsr #24
    ff38:	35393034 	ldrcc	r3, [r9, #-52]!	; 0x34
    ff3c:	00000000 	andeq	r0, r0, r0
    ff40:	7669446e 	strbtvc	r4, [r9], -lr, ror #8
    ff44:	3d3c2046 	ldccc	0, cr2, [ip, #-280]!	; 0xfffffee8
    ff48:	39303420 	ldmdbcc	r0!, {r5, sl, ip, sp}
    ff4c:	00000035 	andeq	r0, r0, r5, lsr r0
    ff50:	4e705f73 	mrcmi	15, 3, r5, cr0, cr3, {3}
    ff54:	42747865 	rsbsmi	r7, r4, #6619136	; 0x650000
    ff58:	6b636f6c 	blvs	18ebd10 <_end+0x18dbbe0>
    ff5c:	203d2120 	eorscs	r2, sp, r0, lsr #2
    ff60:	00000030 	andeq	r0, r0, r0, lsr r0
    ff64:	6f6c6c61 	svcvs	0x006c6c61
    ff68:	70632e63 	rsbvc	r2, r3, r3, ror #28
    ff6c:	00000070 	andeq	r0, r0, r0, ror r0
    ff70:	6f6c4270 	svcvs	0x006c4270
    ff74:	65486b63 	strbvs	r6, [r8, #-2915]	; 0xb63
    ff78:	72656461 	rsbvc	r6, r5, #1627389952	; 0x61000000
    ff7c:	4d6e3e2d 	stclmi	14, cr3, [lr, #-180]!	; 0xffffff4c
    ff80:	63696761 	cmnvs	r9, #25427968	; 0x1840000
    ff84:	203d3d20 	eorscs	r3, sp, r0, lsr #26
    ff88:	434f4c42 	movtmi	r4, #64578	; 0xfc42
    ff8c:	414d5f4b 	cmpmi	sp, fp, asr #30
    ff90:	00434947 	subeq	r4, r3, r7, asr #18
    ff94:	6e752828 	cdpvs	8, 7, cr2, cr5, cr8, {1}
    ff98:	6e676973 	mcrvs	9, 3, r6, cr7, cr3, {3}
    ff9c:	6c206465 	cfstrsvs	mvf6, [r0], #-404	; 0xfffffe6c
    ffa0:	29676e6f 	stmdbcs	r7!, {r0, r1, r2, r3, r5, r6, r9, sl, fp, sp, lr}^
    ffa4:	65527020 	ldrbvs	r7, [r2, #-32]
    ffa8:	746c7573 	strbtvc	r7, [ip], #-1395	; 0x573
    ffac:	41202620 	teqmi	r0, r0, lsr #12
    ffb0:	4e47494c 	cdpmi	9, 4, cr4, cr7, cr12, {2}
    ffb4:	53414d5f 	movtpl	r4, #7519	; 0x1d5f
    ffb8:	3d20294b 	stccc	9, cr2, [r0, #-300]!	; 0xfffffed4
    ffbc:	0030203d 	eorseq	r2, r0, sp, lsr r0
    ffc0:	6f6c4270 	svcvs	0x006c4270
    ffc4:	21206b63 	teqcs	r0, r3, ror #22
    ffc8:	0030203d 	eorseq	r2, r0, sp, lsr r0
    ffcc:	4e705f73 	mrcmi	15, 3, r5, cr0, cr3, {3}
    ffd0:	50747865 	rsbspl	r7, r4, r5, ror #16
    ffd4:	20656761 	rsbcs	r6, r5, r1, ror #14
    ffd8:	30203d21 	eorcc	r3, r0, r1, lsr #26
    ffdc:	00000000 	andeq	r0, r0, r0
    ffe0:	65724670 	ldrbvs	r4, [r2, #-1648]!	; 0x670
    ffe4:	67615065 	strbvs	r5, [r1, -r5, rrx]!
    ffe8:	6e3e2d65 	cdpvs	13, 3, cr2, cr14, cr5, {3}
    ffec:	6967614d 	stmdbvs	r7!, {r0, r2, r3, r6, r8, sp, lr}^
    fff0:	3d3d2063 	ldccc	0, cr2, [sp, #-396]!	; 0xfffffe74
    fff4:	45524620 	ldrbmi	r4, [r2, #-1568]	; 0x620
    fff8:	47415045 	strbmi	r5, [r1, -r5, asr #32]
    fffc:	414d5f45 	cmpmi	sp, r5, asr #30
   10000:	00434947 	subeq	r4, r3, r7, asr #18
   10004:	67615070 			; <UNDEFINED> instruction: 0x67615070
   10008:	3d212065 	stccc	0, cr2, [r1, #-404]!	; 0xfffffe6c
   1000c:	00003020 	andeq	r3, r0, r0, lsr #32
   10010:	61446e28 	cmpvs	r4, r8, lsr #28
   10014:	26206174 			; <UNDEFINED> instruction: 0x26206174
   10018:	46783020 	ldrbtmi	r3, [r8], -r0, lsr #32
   1001c:	3d3d2029 	ldccc	0, cr2, [sp, #-164]!	; 0xffffff5c
   10020:	00003020 	andeq	r3, r0, r0, lsr #32
   10024:	6d6d6362 	stclvs	3, cr6, [sp, #-392]!	; 0xfffffe78
   10028:	626c6961 	rsbvs	r6, ip, #1589248	; 0x184000
   1002c:	632e786f 	teqvs	lr, #7274496	; 0x6f0000
   10030:	00007070 	andeq	r7, r0, r0, ror r0
   10034:	6862696c 	stmdavs	r2!, {r2, r3, r5, r6, r8, fp, sp, lr}^
   10038:	65706c65 	ldrbvs	r6, [r0, #-3173]!	; 0xc65
   1003c:	70632e72 	rsbvc	r2, r3, r2, ror lr
   10040:	00000070 	andeq	r0, r0, r0, ror r0
   10044:	00000000 	andeq	r0, r0, r0

00010048 <_ZTV7CDevice>:
	...
   10050:	0000e680 	andeq	lr, r0, r0, lsl #13
   10054:	0000e6ac 	andeq	lr, r0, ip, lsr #13
   10058:	0000e690 	muleq	r0, r0, r6
   1005c:	0000e698 	muleq	r0, r8, r6
   10060:	0000e6a0 	andeq	lr, r0, r0, lsr #13
   10064:	00000000 	andeq	r0, r0, r0

Disassembly of section .init_array:

00010068 <__init_end-0x8>:
   10068:	00009448 	andeq	r9, r0, r8, asr #8
   1006c:	0000e23c 	andeq	lr, r0, ip, lsr r2

Disassembly of section .data:

00010070 <_ZN6CTimer12s_pMonthNameE>:
   10070:	0000ec08 	andeq	lr, r0, r8, lsl #24
   10074:	0000ec0c 	andeq	lr, r0, ip, lsl #24
   10078:	0000ec10 	andeq	lr, r0, r0, lsl ip
   1007c:	0000ec14 	andeq	lr, r0, r4, lsl ip
   10080:	0000ec18 	andeq	lr, r0, r8, lsl ip
   10084:	0000ec1c 	andeq	lr, r0, ip, lsl ip
   10088:	0000ec20 	andeq	lr, r0, r0, lsr #24
   1008c:	0000ec24 	andeq	lr, r0, r4, lsr #24
   10090:	0000ec28 	andeq	lr, r0, r8, lsr #24
   10094:	0000ec2c 	andeq	lr, r0, ip, lsr #24
   10098:	0000ec30 	andeq	lr, r0, r0, lsr ip
   1009c:	0000ec34 	andeq	lr, r0, r4, lsr ip

000100a0 <_ZN17CExceptionHandler16s_pExceptionNameE>:
   100a0:	0000fd84 	andeq	pc, r0, r4, lsl #27
   100a4:	0000fd98 	muleq	r0, r8, sp
   100a8:	0000fdb0 			; <UNDEFINED> instruction: 0x0000fdb0
   100ac:	0000fdc0 	andeq	pc, r0, r0, asr #27

000100b0 <_ZL13s_BlockBucket>:
   100b0:	00000040 	andeq	r0, r0, r0, asr #32
   100b4:	00000000 	andeq	r0, r0, r0
   100b8:	00000400 	andeq	r0, r0, r0, lsl #8
   100bc:	00000000 	andeq	r0, r0, r0
   100c0:	00001000 	andeq	r1, r0, r0
   100c4:	00000000 	andeq	r0, r0, r0
   100c8:	00004000 	andeq	r4, r0, r0
   100cc:	00000000 	andeq	r0, r0, r0
   100d0:	00040000 	andeq	r0, r4, r0
   100d4:	00000000 	andeq	r0, r0, r0
   100d8:	00080000 	andeq	r0, r8, r0
	...

Disassembly of section .bss:

000100e8 <_ZN7CActLED7s_pThisE>:
   100e8:	00000000 	andeq	r0, r0, r0

000100ec <_ZN8CGPIOPin10s_SpinLockE>:
   100ec:	00000000 	andeq	r0, r0, r0

000100f0 <_ZL16s_nCriticalLevel>:
   100f0:	00000000 	andeq	r0, r0, r0

000100f4 <_ZL14s_bWereEnabled>:
   100f4:	00000000 	andeq	r0, r0, r0

000100f8 <__dso_handle>:
   100f8:	00000000 	andeq	r0, r0, r0

000100fc <_ZN6CTimer7s_pThisE>:
   100fc:	00000000 	andeq	r0, r0, r0

00010100 <_ZN14CKernelOptions7s_pThisE>:
   10100:	00000000 	andeq	r0, r0, r0

00010104 <_ZN18CDeviceNameService6s_ThisE>:
   10104:	00000000 	andeq	r0, r0, r0

00010108 <_ZN7CLogger7s_pThisE>:
   10108:	00000000 	andeq	r0, r0, r0

0001010c <_ZN17CExceptionHandler7s_pThisE>:
   1010c:	00000000 	andeq	r0, r0, r0

00010110 <_ZN16CInterruptSystem7s_pThisE>:
   10110:	00000000 	andeq	r0, r0, r0

00010114 <_ZL12s_pNextBlock>:
   10114:	00000000 	andeq	r0, r0, r0

00010118 <_ZL13s_pBlockLimit>:
   10118:	00000000 	andeq	r0, r0, r0

0001011c <_ZL11s_pNextPage>:
   1011c:	00000000 	andeq	r0, r0, r0

00010120 <_ZL12s_pPageLimit>:
   10120:	00000000 	andeq	r0, r0, r0

00010124 <_ZL15s_BlockSpinLock>:
   10124:	00000000 	andeq	r0, r0, r0

00010128 <_ZL14s_PageSpinLock>:
   10128:	00000000 	andeq	r0, r0, r0

0001012c <_ZL12s_PageBucket>:
   1012c:	00000000 	andeq	r0, r0, r0

Disassembly of section .ARM.attributes:

00000000 <.ARM.attributes>:
   0:	00002d41 	andeq	r2, r0, r1, asr #26
   4:	61656100 	cmnvs	r5, r0, lsl #2
   8:	01006962 	tsteq	r0, r2, ror #18
   c:	00000023 	andeq	r0, r0, r3, lsr #32
  10:	004a3605 	subeq	r3, sl, r5, lsl #12
  14:	01080606 	tsteq	r8, r6, lsl #12
  18:	020a0109 	andeq	r0, sl, #1073741826	; 0x40000002
  1c:	01140412 	tsteq	r4, r2, lsl r4
  20:	03170115 	tsteq	r7, #1073741829	; 0x40000005
  24:	011a0118 	tsteq	sl, r8, lsl r1
  28:	011c031b 	tsteq	ip, fp, lsl r3
  2c:	Address 0x000000000000002c is out of bounds.


Disassembly of section .comment:

00000000 <.comment>:
   0:	3a434347 	bcc	10d0d24 <_end+0x10c0bf4>
   4:	2e342820 	cdpcs	8, 3, cr2, cr4, cr0, {1}
   8:	2d322e38 	ldccs	14, cr2, [r2, #-224]!	; 0xffffff20
   c:	62753431 	rsbsvs	r3, r5, #822083584	; 0x31000000
  10:	75746e75 	ldrbvc	r6, [r4, #-3701]!	; 0xe75
  14:	29362b31 	ldmdbcs	r6!, {r0, r4, r5, r8, r9, fp, sp}
  18:	382e3420 	stmdacc	lr!, {r5, sl, ip, sp}
  1c:	Address 0x000000000000001c is out of bounds.

